                 U abort@@GLIBC_2.2.5
                 U __assert_fail@@GLIBC_2.2.5
000000000029bd30 B __bss_start
                 U compiler_globals
000000000029bd40 b completed.6972
                 U convert_to_boolean
                 U _convert_to_string
                 U __cxa_allocate_exception
                 U __cxa_atexit@@GLIBC_2.2.5
                 U __cxa_begin_catch
                 U __cxa_call_unexpected
                 U __cxa_end_catch
                 w __cxa_finalize@@GLIBC_2.2.5
                 U __cxa_free_exception
                 U __cxa_guard_abort
                 U __cxa_guard_acquire
                 U __cxa_guard_release
                 U __cxa_pure_virtual
                 U __cxa_rethrow
                 U __cxa_throw
000000000005c160 t deregister_tm_clones
000000000005c1d0 t __do_global_dtors_aux
00000000002952d0 t __do_global_dtors_aux_fini_array_entry
000000000029b980 d __dso_handle
000000000029ba18 d DW.ref.__gxx_personality_v0
000000000029b988 d DW.ref._ZTIN5boost16exception_detail10clone_baseE
000000000029b990 d DW.ref._ZTIN5boost9exceptionE
000000000029b998 d DW.ref._ZTINSt8ios_base7failureE
000000000029b9a0 d DW.ref._ZTIPSt9exception
000000000029b9a8 d DW.ref._ZTISt10bad_typeid
000000000029b9b0 d DW.ref._ZTISt11logic_error
000000000029b9b8 d DW.ref._ZTISt11range_error
000000000029b9c0 d DW.ref._ZTISt12domain_error
000000000029b9c8 d DW.ref._ZTISt12length_error
000000000029b9d0 d DW.ref._ZTISt12out_of_range
000000000029b9d8 d DW.ref._ZTISt13bad_exception
000000000029b9e0 d DW.ref._ZTISt13runtime_error
000000000029b9e8 d DW.ref._ZTISt14overflow_error
000000000029b9f0 d DW.ref._ZTISt15underflow_error
000000000029b9f8 d DW.ref._ZTISt16invalid_argument
000000000029ba00 d DW.ref._ZTISt8bad_cast
000000000029ba08 d DW.ref._ZTISt9bad_alloc
000000000029ba10 d DW.ref._ZTISt9exception
0000000000298810 d _DYNAMIC
                 U __dynamic_cast
000000000029bd30 D _edata
                 U _efree
                 U _emalloc
000000000029bef0 B _end
000000000007ede0 T _fini
000000000005c210 t frame_dummy
00000000002952b8 t __frame_dummy_init_array_entry
0000000000092400 r __FRAME_END__
                 U gc_remove_zval_from_buffer
                 U get_driver_instance
000000000007e5cf T get_module
0000000000299000 d _GLOBAL_OFFSET_TABLE_
000000000005e63b t _GLOBAL__sub_I_ziscky.cpp
000000000007ec31 t _GLOBAL__sub_I_ziscky_wrap.cpp
                 w __gmon_start__
                 U __gxx_personality_v0
0000000000056e60 T _init
                 w _ITM_deregisterTMCloneTable
                 w _ITM_registerTMCloneTable
00000000002952d8 d __JCR_END__
00000000002952d8 d __JCR_LIST__
                 w _Jv_RegisterClasses
                 U memset@@GLIBC_2.2.5
                 U nanosleep@@GLIBC_2.2.5
                 U _object_init
                 U _object_init_ex
                 U pthread_cond_broadcast@@GLIBC_2.3.2
                 U pthread_cond_destroy@@GLIBC_2.3.2
                 U pthread_cond_init@@GLIBC_2.3.2
                 U pthread_cond_wait@@GLIBC_2.3.2
                 w __pthread_key_create
                 U pthread_mutex_destroy@@GLIBC_2.2.5
                 U pthread_mutex_init@@GLIBC_2.2.5
                 U pthread_mutex_lock@@GLIBC_2.2.5
                 U pthread_mutex_unlock@@GLIBC_2.2.5
000000000005c190 t register_tm_clones
                 U sched_yield@@GLIBC_2.2.5
                 U strcmp@@GLIBC_2.2.5
                 U strcpy@@GLIBC_2.2.5
                 U strlen@@GLIBC_2.2.5
                 U strncpy@@GLIBC_2.2.5
                 U strstr@@GLIBC_2.2.5
000000000007e5dc t SWIG_InitializeModule
000000000007c874 t SWIG_MangledTypeQueryModule
000000000029bd28 D SWIG_module_entry
000000000007ca7c t SWIG_PackData
000000000007cd1e t SWIG_PackDataName
000000000007cc04 t SWIG_PackVoidPtr
000000000007e8dd t SWIG_PropagateClientData
000000000007c6a0 t SWIG_TypeCast
000000000007c4b0 t SWIG_TypeCheck
000000000007c5b2 t SWIG_TypeCheckStruct
000000000007c7cd t SWIG_TypeClientData
000000000007c3db t SWIG_TypeCmp
000000000007c6e8 t SWIG_TypeDynamicCast
000000000007c47b t SWIG_TypeEquiv
000000000007c317 t SWIG_TypeNameComp
000000000007c844 t SWIG_TypeNewClientData
000000000007c75a t SWIG_TypePrettyName
000000000007c982 t SWIG_TypeQueryModule
000000000007cb0d t SWIG_UnpackData
000000000007cddb t SWIG_UnpackDataName
000000000007ccb1 t SWIG_UnpackVoidPtr
000000000029bd30 d __TMC_END__
                 U _Unwind_Resume@@GCC_3.0
000000000007d593 T _wrap_new_Ziscky
000000000007dd18 T _wrap_Ziscky_ParallelSearch
000000000007d501 T _Z31_wrap_swig_ziscky_get_newobjectiP12_zval_structPS0_S0_i
000000000007d47a T _Z33_wrap_swig_ziscky_alter_newobjectiP12_zval_structPS0_S0_i
000000000005e4cd t _Z41__static_initialization_and_destruction_0ii
000000000007eac3 t _Z41__static_initialization_and_destruction_0ii
                 U _ZdlPv
000000000005e6d6 W _ZdlPvS_
                 U zend_error
                 U zend_get_constant
                 U _zend_get_parameters_array_ex
                 U _zend_hash_add_or_update
                 U zend_hash_find
                 U _zend_list_find
                 U zend_lookup_class
                 U zend_register_list_destructors_ex
                 U zend_register_long_constant
                 U zend_register_resource
                 U zend_rsrc_list_get_rsrc_type
                 U zend_wrong_param_count
000000000029bdb0 u _ZGVN5boost16exception_detail37exception_ptr_static_exception_objectINS0_10bad_alloc_EE1eE
000000000029bdb8 u _ZGVN5boost16exception_detail37exception_ptr_static_exception_objectINS0_14bad_exception_EE1eE
000000000029bd78 u _ZGVZN5boost16exception_detail27get_static_exception_objectINS0_10bad_alloc_EEENS_13exception_ptrEvE2ep
000000000029bd80 u _ZGVZN5boost16exception_detail27get_static_exception_objectINS0_14bad_exception_EEENS_13exception_ptrEvE2ep
000000000029be90 B ziscky_globals
000000000029bc80 D ziscky_module_entry
000000000029ba30 d _ZL10const_name
000000000029bea0 b _ZL10swig_types
000000000029ba80 d _ZL11swig_module
000000000007ce55 t _ZL13SWIG_landfillP21_zend_rsrc_list_entry
0000000000082040 r _ZL15long_min_digits
000000000007d453 t _ZL15SWIG_ResetErrorv
000000000029bb40 d _ZL16_swigc__p_Ziscky
000000000029bac0 d _ZL16_swigt__p_Ziscky
000000000029bbe0 d _ZL16ziscky_functions
000000000029ba60 d _ZL17default_error_msg
000000000029bee8 b _ZL17le_swig__p_Ziscky
000000000029bbc0 d _ZL17swig_cast_initial
000000000029bb30 d _ZL17swig_type_initial
000000000029ba20 d _ZL18default_error_code
000000000007d31a t _ZL18SWIG_Php_GetModulev
000000000007d3c3 t _ZL18SWIG_Php_SetModuleP16swig_module_info
000000000007d1bf t _ZL19SWIG_ZTS_ConvertPtrP12_zval_structPPvP14swig_type_infoi
000000000007d424 t _ZL19ziscky_init_globalsP20_zend_ziscky_globals
000000000007dc70 t _ZL20__wrap_delete_ZisckyP21_zend_rsrc_list_entryPKc
000000000007e5a8 t _ZL22_wrap_destroy_p_ZisckyP21_zend_rsrc_list_entry
000000000007d449 t _ZL22ziscky_destroy_globalsP20_zend_ziscky_globals
0000000000082060 r _ZL23swig_arginfo_new_ziscky
000000000007ce5f t _ZL23SWIG_ZTS_SetPointerZvalP12_zval_structPvP14swig_type_infoi
000000000007d139 t _ZL27SWIG_ZTS_ConvertResourcePtrP12_zval_structP14swig_type_infoi
000000000007d0bc t _ZL28SWIG_ZTS_ConvertResourceDataPvPKcP14swig_type_info
000000000029bb80 d _ZL31_swigc__p_vectorT_std__string_t
000000000029bb00 d _ZL31_swigt__p_vectorT_std__string_t
000000000029bee4 b _ZL32le_swig__p_vectorT_std__string_t
00000000000820e0 r _ZL34swig_arginfo_ziscky_parallelsearch
000000000007e58b t _ZL37_wrap_destroy_p_vectorT_std__string_tP21_zend_rsrc_list_entry
000000000007d3f4 t _ZL9SWIG_FAILv
000000000007ea86 T zm_activate_ziscky
000000000007eaa8 T zm_deactivate_ziscky
000000000007eab9 T zm_info_ziscky
000000000007ea97 T zm_shutdown_ziscky
000000000007e9cb T zm_startup_ziscky
000000000029bd68 b _ZN12_GLOBAL__N_12_1E
000000000029bed8 b _ZN12_GLOBAL__N_12_1E
000000000029bd69 b _ZN12_GLOBAL__N_12_2E
000000000029bed9 b _ZN12_GLOBAL__N_12_2E
000000000029bd6a b _ZN12_GLOBAL__N_12_3E
000000000029beda b _ZN12_GLOBAL__N_12_3E
000000000029bd6b b _ZN12_GLOBAL__N_12_4E
000000000029bedb b _ZN12_GLOBAL__N_12_4E
000000000029bd6c b _ZN12_GLOBAL__N_12_5E
000000000029bedc b _ZN12_GLOBAL__N_12_5E
000000000029bd6d b _ZN12_GLOBAL__N_12_6E
000000000029bedd b _ZN12_GLOBAL__N_12_6E
000000000029bd6e b _ZN12_GLOBAL__N_12_7E
000000000029bede b _ZN12_GLOBAL__N_12_7E
000000000029bd6f b _ZN12_GLOBAL__N_12_8E
000000000029bedf b _ZN12_GLOBAL__N_12_8E
000000000029bd70 b _ZN12_GLOBAL__N_12_9E
000000000029bee0 b _ZN12_GLOBAL__N_12_9E
000000000007ed7c W _ZN16SwigValueWrapperISt6vectorISsSaISsEEE15SwigMovePointeraSERS4_
000000000007ed62 W _ZN16SwigValueWrapperISt6vectorISsSaISsEEE15SwigMovePointerC1EPS2_
000000000007ed62 W _ZN16SwigValueWrapperISt6vectorISsSaISsEEE15SwigMovePointerC2EPS2_
000000000007ec80 W _ZN16SwigValueWrapperISt6vectorISsSaISsEEE15SwigMovePointerD1Ev
000000000007ec80 W _ZN16SwigValueWrapperISt6vectorISsSaISsEEE15SwigMovePointerD2Ev
000000000007ecb0 W _ZN16SwigValueWrapperISt6vectorISsSaISsEEEaSERKS2_
000000000007ec60 W _ZN16SwigValueWrapperISt6vectorISsSaISsEEEC1Ev
000000000007ec60 W _ZN16SwigValueWrapperISt6vectorISsSaISsEEEC2Ev
000000000007ec46 W _ZN16SwigValueWrapperISt6vectorISsSaISsEEED1Ev
000000000007ec46 W _ZN16SwigValueWrapperISt6vectorISsSaISsEEED2Ev
000000000005e8e2 W _ZN3sql9SQLStringC1EPKc
000000000005e8bc W _ZN3sql9SQLStringC1ERKSs
000000000005e8e2 W _ZN3sql9SQLStringC2EPKc
000000000005e8bc W _ZN3sql9SQLStringC2ERKSs
000000000005e8a2 W _ZN3sql9SQLStringD1Ev
000000000005e8a2 W _ZN3sql9SQLStringD2Ev
000000000005ea80 W _ZN5boost10error_infoINS_11throw_file_EPKcEC1ES3_
000000000005ea80 W _ZN5boost10error_infoINS_11throw_file_EPKcEC2ES3_
000000000005ea9a W _ZN5boost10error_infoINS_11throw_line_EiEC1Ei
000000000005ea9a W _ZN5boost10error_infoINS_11throw_line_EiEC2Ei
000000000005ea66 W _ZN5boost10error_infoINS_15throw_function_EPKcEC1ES3_
000000000005ea66 W _ZN5boost10error_infoINS_15throw_function_EPKcEC2ES3_
000000000006842e W _ZN5boost10error_infoINS_27tag_original_exception_typeEPKSt9type_infoEC1ERKS4_
000000000006f502 W _ZN5boost10error_infoINS_27tag_original_exception_typeEPKSt9type_infoEC1ERKS5_
000000000006842e W _ZN5boost10error_infoINS_27tag_original_exception_typeEPKSt9type_infoEC2ERKS4_
000000000006f502 W _ZN5boost10error_infoINS_27tag_original_exception_typeEPKSt9type_infoEC2ERKS5_
00000000000684b0 W _ZN5boost10error_infoINS_27tag_original_exception_typeEPKSt9type_infoED0Ev
000000000006846e W _ZN5boost10error_infoINS_27tag_original_exception_typeEPKSt9type_infoED1Ev
000000000006846e W _ZN5boost10error_infoINS_27tag_original_exception_typeEPKSt9type_infoED2Ev
000000000005f5c4 W _ZN5boost10lock_errorC1EiPKc
0000000000062de6 W _ZN5boost10lock_errorC1ERKS0_
000000000005f5c4 W _ZN5boost10lock_errorC2EiPKc
0000000000062de6 W _ZN5boost10lock_errorC2ERKS0_
000000000005f642 W _ZN5boost10lock_errorD0Ev
000000000005f600 W _ZN5boost10lock_errorD1Ev
000000000005f600 W _ZN5boost10lock_errorD2Ev
0000000000063246 W _ZN5boost10lock_guardINS_5mutexEEC1ERS1_
0000000000063246 W _ZN5boost10lock_guardINS_5mutexEEC2ERS1_
0000000000063272 W _ZN5boost10lock_guardINS_5mutexEED1Ev
0000000000063272 W _ZN5boost10lock_guardINS_5mutexEED2Ev
0000000000077272 W _ZN5boost10scoped_ptrISt6vectorISsSaISsEEE4swapERS4_
0000000000074c14 W _ZN5boost10scoped_ptrISt6vectorISsSaISsEEE5resetEPS3_
0000000000074adc W _ZN5boost10scoped_ptrISt6vectorISsSaISsEEEC1EPS3_
0000000000074adc W _ZN5boost10scoped_ptrISt6vectorISsSaISsEEEC2EPS3_
0000000000074af6 W _ZN5boost10scoped_ptrISt6vectorISsSaISsEEED1Ev
0000000000074af6 W _ZN5boost10scoped_ptrISt6vectorISsSaISsEEED2Ev
000000000006c5a2 W _ZN5boost10shared_ptrIKNS_16exception_detail10clone_baseEE4swapERS4_
00000000000651f0 W _ZN5boost10shared_ptrIKNS_16exception_detail10clone_baseEEaSERKS4_
0000000000060b8c W _ZN5boost10shared_ptrIKNS_16exception_detail10clone_baseEEC1ERKS4_
0000000000063b66 W _ZN5boost10shared_ptrIKNS_16exception_detail10clone_baseEEC1Ev
0000000000068880 W _ZN5boost10shared_ptrIKNS_16exception_detail10clone_baseEEC1INS1_10clone_implINS1_10bad_alloc_EEEEEPT_
0000000000068b16 W _ZN5boost10shared_ptrIKNS_16exception_detail10clone_baseEEC1INS1_10clone_implINS1_14bad_exception_EEEEEPT_
0000000000063eb4 W _ZN5boost10shared_ptrIKNS_16exception_detail10clone_baseEEC1IS3_EEPT_
0000000000060b8c W _ZN5boost10shared_ptrIKNS_16exception_detail10clone_baseEEC2ERKS4_
0000000000063b66 W _ZN5boost10shared_ptrIKNS_16exception_detail10clone_baseEEC2Ev
0000000000068880 W _ZN5boost10shared_ptrIKNS_16exception_detail10clone_baseEEC2INS1_10clone_implINS1_10bad_alloc_EEEEEPT_
0000000000068b16 W _ZN5boost10shared_ptrIKNS_16exception_detail10clone_baseEEC2INS1_10clone_implINS1_14bad_exception_EEEEEPT_
0000000000063eb4 W _ZN5boost10shared_ptrIKNS_16exception_detail10clone_baseEEC2IS3_EEPT_
0000000000060b54 W _ZN5boost10shared_ptrIKNS_16exception_detail10clone_baseEED1Ev
0000000000060b54 W _ZN5boost10shared_ptrIKNS_16exception_detail10clone_baseEED2Ev
00000000000733b4 W _ZN5boost10shared_ptrINS_10error_infoINS_27tag_original_exception_typeEPKSt9type_infoEEEC1IS6_EEPT_
00000000000733b4 W _ZN5boost10shared_ptrINS_10error_infoINS_27tag_original_exception_typeEPKSt9type_infoEEEC2IS6_EEPT_
000000000006f54a W _ZN5boost10shared_ptrINS_10error_infoINS_27tag_original_exception_typeEPKSt9type_infoEEED1Ev
000000000006f54a W _ZN5boost10shared_ptrINS_10error_infoINS_27tag_original_exception_typeEPKSt9type_infoEEED2Ev
0000000000068178 W _ZN5boost10shared_ptrINS_16exception_detail15error_info_baseEE4swapERS3_
0000000000063940 W _ZN5boost10shared_ptrINS_16exception_detail15error_info_baseEEaSERKS3_
00000000000606f8 W _ZN5boost10shared_ptrINS_16exception_detail15error_info_baseEEC1ERKS3_
0000000000063a6e W _ZN5boost10shared_ptrINS_16exception_detail15error_info_baseEEC1Ev
0000000000073422 W _ZN5boost10shared_ptrINS_16exception_detail15error_info_baseEEC1INS_10error_infoINS_27tag_original_exception_typeEPKSt9type_infoEEEERKNS0_IT_EENS_6detail24sp_enable_if_convertibleISB_S2_E4typeE
00000000000606f8 W _ZN5boost10shared_ptrINS_16exception_detail15error_info_baseEEC2ERKS3_
0000000000063a6e W _ZN5boost10shared_ptrINS_16exception_detail15error_info_baseEEC2Ev
0000000000073422 W _ZN5boost10shared_ptrINS_16exception_detail15error_info_baseEEC2INS_10error_infoINS_27tag_original_exception_typeEPKSt9type_infoEEEERKNS0_IT_EENS_6detail24sp_enable_if_convertibleISB_S2_E4typeE
0000000000060734 W _ZN5boost10shared_ptrINS_16exception_detail15error_info_baseEED1Ev
0000000000060734 W _ZN5boost10shared_ptrINS_16exception_detail15error_info_baseEED2Ev
0000000000074bd4 W _ZN5boost10shared_ptrINS_6detail12shared_stateISt6vectorISsSaISsEEEEE4swapERS7_
0000000000074eac W _ZN5boost10shared_ptrINS_6detail12shared_stateISt6vectorISsSaISsEEEEE5resetEv
0000000000066ab8 W _ZN5boost10shared_ptrINS_6detail12shared_stateISt6vectorISsSaISsEEEEEC1ERKS7_
000000000006d94e W _ZN5boost10shared_ptrINS_6detail12shared_stateISt6vectorISsSaISsEEEEEC1Ev
0000000000071ae4 W _ZN5boost10shared_ptrINS_6detail12shared_stateISt6vectorISsSaISsEEEEEC1IS6_EEPT_
0000000000066ab8 W _ZN5boost10shared_ptrINS_6detail12shared_stateISt6vectorISsSaISsEEEEEC2ERKS7_
000000000006d94e W _ZN5boost10shared_ptrINS_6detail12shared_stateISt6vectorISsSaISsEEEEEC2Ev
0000000000071ae4 W _ZN5boost10shared_ptrINS_6detail12shared_stateISt6vectorISsSaISsEEEEEC2IS6_EEPT_
00000000000666b2 W _ZN5boost10shared_ptrINS_6detail12shared_stateISt6vectorISsSaISsEEEEED1Ev
00000000000666b2 W _ZN5boost10shared_ptrINS_6detail12shared_stateISt6vectorISsSaISsEEEEED2Ev
000000000006304a W _ZN5boost10shared_ptrINS_6detail16thread_data_baseEEC1Ev
0000000000072838 W _ZN5boost10shared_ptrINS_6detail16thread_data_baseEEC1INS1_11thread_dataINS_3_bi6bind_tISt6vectorISsSaISsEENS_4_mfi3mf6ISA_6ZisckySA_SA_SA_SsbRNS_7promiseISA_EEEENS6_5list7INS6_5valueIPSD_EENSJ_ISA_EESM_SM_NSJ_ISsEENSJ_IbEENS_17reference_wrapperISF_EEEEEEEEEEPT_
0000000000071dba W _ZN5boost10shared_ptrINS_6detail16thread_data_baseEEC1INS1_11thread_dataINS_3_bi6bind_tIvNS_4_mfi3mf6ISt6vectorISsSaISsEE6ZisckySC_SC_SC_SsbRNS_7promiseISC_EEEENS6_5list7INS6_5valueIPSD_EENSJ_ISC_EESM_SM_NSJ_ISsEENSJ_IbEENS_17reference_wrapperISF_EEEEEEEEEEPT_
0000000000078486 W _ZN5boost10shared_ptrINS_6detail16thread_data_baseEEC1IS2_EERKNS0_IT_EEPS2_
000000000006304a W _ZN5boost10shared_ptrINS_6detail16thread_data_baseEEC2Ev
0000000000072838 W _ZN5boost10shared_ptrINS_6detail16thread_data_baseEEC2INS1_11thread_dataINS_3_bi6bind_tISt6vectorISsSaISsEENS_4_mfi3mf6ISA_6ZisckySA_SA_SA_SsbRNS_7promiseISA_EEEENS6_5list7INS6_5valueIPSD_EENSJ_ISA_EESM_SM_NSJ_ISsEENSJ_IbEENS_17reference_wrapperISF_EEEEEEEEEEPT_
0000000000071dba W _ZN5boost10shared_ptrINS_6detail16thread_data_baseEEC2INS1_11thread_dataINS_3_bi6bind_tIvNS_4_mfi3mf6ISt6vectorISsSaISsEE6ZisckySC_SC_SC_SsbRNS_7promiseISC_EEEENS6_5list7INS6_5valueIPSD_EENSJ_ISC_EESM_SM_NSJ_ISsEENSJ_IbEENS_17reference_wrapperISF_EEEEEEEEEEPT_
0000000000078486 W _ZN5boost10shared_ptrINS_6detail16thread_data_baseEEC2IS2_EERKNS0_IT_EEPS2_
000000000005fb72 W _ZN5boost10shared_ptrINS_6detail16thread_data_baseEED1Ev
000000000005fb72 W _ZN5boost10shared_ptrINS_6detail16thread_data_baseEED2Ev
000000000006547c W _ZN5boost10shared_ptrINS_6detail17shared_state_baseEEC1Ev
0000000000078426 W _ZN5boost10shared_ptrINS_6detail17shared_state_baseEEC1INS1_12shared_stateISt6vectorISsSaISsEEEEEERKNS0_IT_EEPS2_
000000000006547c W _ZN5boost10shared_ptrINS_6detail17shared_state_baseEEC2Ev
0000000000078426 W _ZN5boost10shared_ptrINS_6detail17shared_state_baseEEC2INS1_12shared_stateISt6vectorISsSaISsEEEEEERKNS0_IT_EEPS2_
0000000000061f72 W _ZN5boost10shared_ptrINS_6detail17shared_state_baseEED1Ev
0000000000061f72 W _ZN5boost10shared_ptrINS_6detail17shared_state_baseEED2Ev
000000000005fb54 W _ZN5boost10shared_ptrINS_6detail20tss_cleanup_functionEED1Ev
000000000005fb54 W _ZN5boost10shared_ptrINS_6detail20tss_cleanup_functionEED2Ev
0000000000071a35 W _ZN5boost11atomic_loadINS_6detail12shared_stateISt6vectorISsSaISsEEEEEENS_10shared_ptrIT_EEPKS9_
0000000000061b88 W _ZN5boost11future_errcC1ENS0_9enum_typeE
0000000000061b88 W _ZN5boost11future_errcC2ENS0_9enum_typeE
                 U _ZN5boost11this_thread18interruption_pointEv
00000000000652b4 W _ZN5boost11unique_lockINS_5mutexEE4lockEv
000000000006362e W _ZN5boost11unique_lockINS_5mutexEE6unlockEv
00000000000635ce W _ZN5boost11unique_lockINS_5mutexEEC1ERS1_
00000000000635ce W _ZN5boost11unique_lockINS_5mutexEEC2ERS1_
0000000000063600 W _ZN5boost11unique_lockINS_5mutexEED1Ev
0000000000063600 W _ZN5boost11unique_lockINS_5mutexEED2Ev
0000000000061bfc W _ZN5boost12future_errorC1ENS_6system10error_codeE
00000000000656c8 W _ZN5boost12future_errorC1ERKS0_
0000000000061bfc W _ZN5boost12future_errorC2ENS_6system10error_codeE
00000000000656c8 W _ZN5boost12future_errorC2ERKS0_
0000000000061cd6 W _ZN5boost12future_errorD0Ev
0000000000061c94 W _ZN5boost12future_errorD1Ev
0000000000061c94 W _ZN5boost12future_errorD2Ev
00000000000618c4 W _ZN5boost13exception_ptraSERKS0_
0000000000060bc8 W _ZN5boost13exception_ptrC1ERKNS_10shared_ptrIKNS_16exception_detail10clone_baseEEE
00000000000610a8 W _ZN5boost13exception_ptrC1ERKS0_
0000000000060b72 W _ZN5boost13exception_ptrC1Ev
0000000000060bc8 W _ZN5boost13exception_ptrC2ERKNS_10shared_ptrIKNS_16exception_detail10clone_baseEEE
00000000000610a8 W _ZN5boost13exception_ptrC2ERKS0_
0000000000060b72 W _ZN5boost13exception_ptrC2Ev
000000000006108e W _ZN5boost13exception_ptrD1Ev
000000000006108e W _ZN5boost13exception_ptrD2Ev
0000000000061a8e W _ZN5boost13function_baseC1Ev
0000000000061a8e W _ZN5boost13function_baseC2Ev
0000000000062ddb W _ZN5boost13ignore_unusedIiEEvRKT_
0000000000065b6a W _ZN5boost13promise_movedC1ERKS0_
0000000000061e74 W _ZN5boost13promise_movedC1Ev
0000000000065b6a W _ZN5boost13promise_movedC2ERKS0_
0000000000061e74 W _ZN5boost13promise_movedC2Ev
0000000000065be4 W _ZN5boost13promise_movedD0Ev
0000000000065ba2 W _ZN5boost13promise_movedD1Ev
0000000000065ba2 W _ZN5boost13promise_movedD2Ev
0000000000066cb6 W _ZN5boost13unique_futureISt6vectorISsSaISsEEE3getEv
0000000000071e5a W _ZN5boost13unique_futureISt6vectorISsSaISsEEE4moveEv
000000000006dc08 W _ZN5boost13unique_futureISt6vectorISsSaISsEEEC1ENS_10shared_ptrINS_6detail12shared_stateIS3_EEEE
000000000006dc88 W _ZN5boost13unique_futureISt6vectorISsSaISsEEEC1ENS_6detail13thread_move_tIS4_EE
000000000006dc08 W _ZN5boost13unique_futureISt6vectorISsSaISsEEEC2ENS_10shared_ptrINS_6detail12shared_stateIS3_EEEE
000000000006dc88 W _ZN5boost13unique_futureISt6vectorISsSaISsEEEC2ENS_6detail13thread_move_tIS4_EE
000000000006dc6e W _ZN5boost13unique_futureISt6vectorISsSaISsEEEcvNS_6detail13thread_move_tIS4_EEEv
0000000000066c34 W _ZN5boost13unique_futureISt6vectorISsSaISsEEED1Ev
0000000000066c34 W _ZN5boost13unique_futureISt6vectorISsSaISsEEED2Ev
0000000000065992 W _ZN5boost14broken_promiseC1ERKS0_
0000000000061d5a W _ZN5boost14broken_promiseC1Ev
0000000000065992 W _ZN5boost14broken_promiseC2ERKS0_
0000000000061d5a W _ZN5boost14broken_promiseC2Ev
0000000000065a0c W _ZN5boost14broken_promiseD0Ev
00000000000659ca W _ZN5boost14broken_promiseD1Ev
00000000000659ca W _ZN5boost14broken_promiseD2Ev
00000000000734c4 W _ZN5boost14checked_deleteIKNS_16exception_detail10clone_baseEEEvPT_
000000000007835e W _ZN5boost14checked_deleteINS_10error_infoINS_27tag_original_exception_typeEPKSt9type_infoEEEEvPT_
0000000000075c3e W _ZN5boost14checked_deleteINS_16exception_detail10clone_implINS1_10bad_alloc_EEEEEvPT_
0000000000075ca6 W _ZN5boost14checked_deleteINS_16exception_detail10clone_implINS1_14bad_exception_EEEEEvPT_
0000000000078192 W _ZN5boost14checked_deleteINS_6detail11thread_dataINS_3_bi6bind_tISt6vectorISsSaISsEENS_4_mfi3mf6IS7_6ZisckyS7_S7_S7_SsbRNS_7promiseIS7_EEEENS3_5list7INS3_5valueIPSA_EENSG_IS7_EESJ_SJ_NSG_ISsEENSG_IbEENS_17reference_wrapperISC_EEEEEEEEEEvPT_
0000000000077e4e W _ZN5boost14checked_deleteINS_6detail11thread_dataINS_3_bi6bind_tIvNS_4_mfi3mf6ISt6vectorISsSaISsEE6ZisckyS9_S9_S9_SsbRNS_7promiseIS9_EEEENS3_5list7INS3_5valueIPSA_EENSG_IS9_EESJ_SJ_NSG_ISsEENSG_IbEENS_17reference_wrapperISC_EEEEEEEEEEvPT_
0000000000077ccc W _ZN5boost14checked_deleteINS_6detail12shared_stateISt6vectorISsSaISsEEEEEEvPT_
0000000000077157 W _ZN5boost14checked_deleteISt6vectorISsSaISsEEEEvPT_
0000000000065ad4 W _ZN5boost14copy_exceptionINS_14broken_promiseEEENS_13exception_ptrERKT_
000000000006aff8 W _ZN5boost14copy_exceptionINS_16exception_detail39current_exception_std_exception_wrapperINSt8ios_base7failureEEEEENS_13exception_ptrERKT_
000000000006c068 W _ZN5boost14copy_exceptionINS_16exception_detail39current_exception_std_exception_wrapperISt10bad_typeidEEEENS_13exception_ptrERKT_
0000000000069edc W _ZN5boost14copy_exceptionINS_16exception_detail39current_exception_std_exception_wrapperISt11logic_errorEEEENS_13exception_ptrERKT_
000000000006a314 W _ZN5boost14copy_exceptionINS_16exception_detail39current_exception_std_exception_wrapperISt11range_errorEEEENS_13exception_ptrERKT_
0000000000068ea4 W _ZN5boost14copy_exceptionINS_16exception_detail39current_exception_std_exception_wrapperISt12domain_errorEEEENS_13exception_ptrERKT_
00000000000696dc W _ZN5boost14copy_exceptionINS_16exception_detail39current_exception_std_exception_wrapperISt12length_errorEEEENS_13exception_ptrERKT_
0000000000069adc W _ZN5boost14copy_exceptionINS_16exception_detail39current_exception_std_exception_wrapperISt12out_of_rangeEEEENS_13exception_ptrERKT_
000000000006c468 W _ZN5boost14copy_exceptionINS_16exception_detail39current_exception_std_exception_wrapperISt13bad_exceptionEEEENS_13exception_ptrERKT_
000000000006b3f8 W _ZN5boost14copy_exceptionINS_16exception_detail39current_exception_std_exception_wrapperISt13runtime_errorEEEENS_13exception_ptrERKT_
000000000006a74c W _ZN5boost14copy_exceptionINS_16exception_detail39current_exception_std_exception_wrapperISt14overflow_errorEEEENS_13exception_ptrERKT_
000000000006ab84 W _ZN5boost14copy_exceptionINS_16exception_detail39current_exception_std_exception_wrapperISt15underflow_errorEEEENS_13exception_ptrERKT_
00000000000692dc W _ZN5boost14copy_exceptionINS_16exception_detail39current_exception_std_exception_wrapperISt16invalid_argumentEEEENS_13exception_ptrERKT_
000000000006bc30 W _ZN5boost14copy_exceptionINS_16exception_detail39current_exception_std_exception_wrapperISt8bad_castEEEENS_13exception_ptrERKT_
000000000006b7f8 W _ZN5boost14copy_exceptionINS_16exception_detail39current_exception_std_exception_wrapperISt9bad_allocEEEENS_13exception_ptrERKT_
0000000000063de2 W _ZN5boost14copy_exceptionINS_17unknown_exceptionEEENS_13exception_ptrERKT_
000000000007b6fb W _ZN5boost14to_string_stubINS_10error_infoINS_27tag_original_exception_typeEPKSt9type_infoEEEESsRKT_
000000000005f56c W _ZN5boost15condition_errorC1EiPKc
0000000000063354 W _ZN5boost15condition_errorC1ERKS0_
000000000005f56c W _ZN5boost15condition_errorC2EiPKc
0000000000063354 W _ZN5boost15condition_errorC2ERKS0_
00000000000633ce W _ZN5boost15condition_errorD0Ev
000000000006338c W _ZN5boost15condition_errorD1Ev
000000000006338c W _ZN5boost15condition_errorD2Ev
                 U _ZN5boost15future_categoryEv
0000000000062f5e W _ZN5boost15throw_exceptionINS_10lock_errorEEEvRKT_
0000000000065d4a W _ZN5boost15throw_exceptionINS_13promise_movedEEEvRKT_
0000000000063534 W _ZN5boost15throw_exceptionINS_15condition_errorEEEvRKT_
000000000006c962 W _ZN5boost15throw_exceptionINS_17bad_function_callEEEvRKT_
000000000006de6a W _ZN5boost15throw_exceptionINS_20future_uninitializedEEEvRKT_
0000000000062d42 W _ZN5boost15throw_exceptionINS_21thread_resource_errorEEEvRKT_
0000000000065fc4 W _ZN5boost15throw_exceptionINS_24future_already_retrievedEEEvRKT_
00000000000658f8 W _ZN5boost15throw_exceptionINS_25promise_already_satisfiedEEEvRKT_
000000000006529a W _ZN5boost15underlying_castIiNS_11future_errcEEET_T0_
0000000000063f72 W _ZN5boost16exception_detail10bad_alloc_C1ERKS1_
0000000000063f22 W _ZN5boost16exception_detail10bad_alloc_C1Ev
0000000000063f72 W _ZN5boost16exception_detail10bad_alloc_C2ERKS1_
0000000000063f22 W _ZN5boost16exception_detail10bad_alloc_C2Ev
0000000000060d38 W _ZN5boost16exception_detail10bad_alloc_D0Ev
0000000000060cca W _ZN5boost16exception_detail10bad_alloc_D1Ev
0000000000060cca W _ZN5boost16exception_detail10bad_alloc_D2Ev
0000000000062ae6 W _ZN5boost16exception_detail10clone_baseC1ERKS1_
000000000006865e W _ZN5boost16exception_detail10clone_baseC1Ev
0000000000062ae6 W _ZN5boost16exception_detail10clone_baseC2ERKS1_
000000000006865e W _ZN5boost16exception_detail10clone_baseC2Ev
000000000005ebda W _ZN5boost16exception_detail10clone_baseD0Ev
000000000005eba4 W _ZN5boost16exception_detail10clone_baseD1Ev
000000000005eba4 W _ZN5boost16exception_detail10clone_baseD2Ev
000000000006867a W _ZN5boost16exception_detail10clone_implINS0_10bad_alloc_EEC1ERKS2_
0000000000063fd8 W _ZN5boost16exception_detail10clone_implINS0_10bad_alloc_EEC1ERKS3_
000000000007b31a W _ZN5boost16exception_detail10clone_implINS0_10bad_alloc_EEC1ERKS3_NS3_9clone_tagE
00000000000687dc W _ZN5boost16exception_detail10clone_implINS0_10bad_alloc_EED0Ev
000000000006873c W _ZN5boost16exception_detail10clone_implINS0_10bad_alloc_EED1Ev
0000000000068910 W _ZN5boost16exception_detail10clone_implINS0_14bad_exception_EEC1ERKS2_
0000000000064396 W _ZN5boost16exception_detail10clone_implINS0_14bad_exception_EEC1ERKS3_
000000000007b258 W _ZN5boost16exception_detail10clone_implINS0_14bad_exception_EEC1ERKS3_NS3_9clone_tagE
0000000000068a72 W _ZN5boost16exception_detail10clone_implINS0_14bad_exception_EED0Ev
00000000000689d2 W _ZN5boost16exception_detail10clone_implINS0_14bad_exception_EED1Ev
000000000006e810 W _ZN5boost16exception_detail10clone_implINS0_19error_info_injectorINS_10lock_errorEEEEC1ERKS4_
0000000000062ea6 W _ZN5boost16exception_detail10clone_implINS0_19error_info_injectorINS_10lock_errorEEEEC1ERKS5_
000000000007b568 W _ZN5boost16exception_detail10clone_implINS0_19error_info_injectorINS_10lock_errorEEEEC1ERKS5_NS5_9clone_tagE
0000000000067864 W _ZN5boost16exception_detail10clone_implINS0_19error_info_injectorINS_10lock_errorEEEED0Ev
00000000000677c4 W _ZN5boost16exception_detail10clone_implINS0_19error_info_injectorINS_10lock_errorEEEED1Ev
00000000000713e2 W _ZN5boost16exception_detail10clone_implINS0_19error_info_injectorINS_13promise_movedEEEEC1ERKS4_
0000000000065c92 W _ZN5boost16exception_detail10clone_implINS0_19error_info_injectorINS_13promise_movedEEEEC1ERKS5_
000000000007b02a W _ZN5boost16exception_detail10clone_implINS0_19error_info_injectorINS_13promise_movedEEEEC1ERKS5_NS5_9clone_tagE
000000000006cee6 W _ZN5boost16exception_detail10clone_implINS0_19error_info_injectorINS_13promise_movedEEEED0Ev
000000000006ce46 W _ZN5boost16exception_detail10clone_implINS0_19error_info_injectorINS_13promise_movedEEEED1Ev
000000000006ee06 W _ZN5boost16exception_detail10clone_implINS0_19error_info_injectorINS_15condition_errorEEEEC1ERKS4_
000000000006347c W _ZN5boost16exception_detail10clone_implINS0_19error_info_injectorINS_15condition_errorEEEEC1ERKS5_
000000000007b49e W _ZN5boost16exception_detail10clone_implINS0_19error_info_injectorINS_15condition_errorEEEEC1ERKS5_NS5_9clone_tagE
0000000000067f46 W _ZN5boost16exception_detail10clone_implINS0_19error_info_injectorINS_15condition_errorEEEED0Ev
0000000000067ea6 W _ZN5boost16exception_detail10clone_implINS0_19error_info_injectorINS_15condition_errorEEEED1Ev
00000000000743f4 W _ZN5boost16exception_detail10clone_implINS0_19error_info_injectorINS_17bad_function_callEEEEC1ERKS4_
000000000006c8aa W _ZN5boost16exception_detail10clone_implINS0_19error_info_injectorINS_17bad_function_callEEEEC1ERKS5_
000000000007a38a W _ZN5boost16exception_detail10clone_implINS0_19error_info_injectorINS_17bad_function_callEEEEC1ERKS5_NS5_9clone_tagE
000000000007114a W _ZN5boost16exception_detail10clone_implINS0_19error_info_injectorINS_17bad_function_callEEEED0Ev
00000000000710aa W _ZN5boost16exception_detail10clone_implINS0_19error_info_injectorINS_17bad_function_callEEEED1Ev
0000000000074f84 W _ZN5boost16exception_detail10clone_implINS0_19error_info_injectorINS_20future_uninitializedEEEEC1ERKS4_
000000000006ddb2 W _ZN5boost16exception_detail10clone_implINS0_19error_info_injectorINS_20future_uninitializedEEEEC1ERKS5_
000000000007a2c0 W _ZN5boost16exception_detail10clone_implINS0_19error_info_injectorINS_20future_uninitializedEEEEC1ERKS5_NS5_9clone_tagE
00000000000720b6 W _ZN5boost16exception_detail10clone_implINS0_19error_info_injectorINS_20future_uninitializedEEEED0Ev
0000000000072016 W _ZN5boost16exception_detail10clone_implINS0_19error_info_injectorINS_20future_uninitializedEEEED1Ev
000000000006e6ca W _ZN5boost16exception_detail10clone_implINS0_19error_info_injectorINS_21thread_resource_errorEEEEC1ERKS4_
0000000000062c8a W _ZN5boost16exception_detail10clone_implINS0_19error_info_injectorINS_21thread_resource_errorEEEEC1ERKS5_
000000000007b632 W _ZN5boost16exception_detail10clone_implINS0_19error_info_injectorINS_21thread_resource_errorEEEEC1ERKS5_NS5_9clone_tagE
00000000000676a2 W _ZN5boost16exception_detail10clone_implINS0_19error_info_injectorINS_21thread_resource_errorEEEED0Ev
0000000000067602 W _ZN5boost16exception_detail10clone_implINS0_19error_info_injectorINS_21thread_resource_errorEEEED1Ev
0000000000071528 W _ZN5boost16exception_detail10clone_implINS0_19error_info_injectorINS_24future_already_retrievedEEEEC1ERKS4_
0000000000065f0c W _ZN5boost16exception_detail10clone_implINS0_19error_info_injectorINS_24future_already_retrievedEEEEC1ERKS5_
000000000007af60 W _ZN5boost16exception_detail10clone_implINS0_19error_info_injectorINS_24future_already_retrievedEEEEC1ERKS5_NS5_9clone_tagE
000000000006d0a8 W _ZN5boost16exception_detail10clone_implINS0_19error_info_injectorINS_24future_already_retrievedEEEED0Ev
000000000006d008 W _ZN5boost16exception_detail10clone_implINS0_19error_info_injectorINS_24future_already_retrievedEEEED1Ev
00000000000711fc W _ZN5boost16exception_detail10clone_implINS0_19error_info_injectorINS_25promise_already_satisfiedEEEEC1ERKS4_
0000000000065840 W _ZN5boost16exception_detail10clone_implINS0_19error_info_injectorINS_25promise_already_satisfiedEEEEC1ERKS5_
000000000007b18e W _ZN5boost16exception_detail10clone_implINS0_19error_info_injectorINS_25promise_already_satisfiedEEEEC1ERKS5_NS5_9clone_tagE
000000000006cb9e W _ZN5boost16exception_detail10clone_implINS0_19error_info_injectorINS_25promise_already_satisfiedEEEED0Ev
000000000006cafe W _ZN5boost16exception_detail10clone_implINS0_19error_info_injectorINS_25promise_already_satisfiedEEEED1Ev
0000000000073d96 W _ZN5boost16exception_detail10clone_implINS0_39current_exception_std_exception_wrapperINSt8ios_base7failureEEEEC1ERKS5_
000000000006af40 W _ZN5boost16exception_detail10clone_implINS0_39current_exception_std_exception_wrapperINSt8ios_base7failureEEEEC1ERKS6_
000000000007a846 W _ZN5boost16exception_detail10clone_implINS0_39current_exception_std_exception_wrapperINSt8ios_base7failureEEEEC1ERKS6_NS6_9clone_tagE
0000000000070658 W _ZN5boost16exception_detail10clone_implINS0_39current_exception_std_exception_wrapperINSt8ios_base7failureEEEED0Ev
00000000000705b8 W _ZN5boost16exception_detail10clone_implINS0_39current_exception_std_exception_wrapperINSt8ios_base7failureEEEED1Ev
000000000007414e W _ZN5boost16exception_detail10clone_implINS0_39current_exception_std_exception_wrapperISt10bad_typeidEEEC1ERKS4_
000000000006bfb0 W _ZN5boost16exception_detail10clone_implINS0_39current_exception_std_exception_wrapperISt10bad_typeidEEEC1ERKS5_
000000000007a51e W _ZN5boost16exception_detail10clone_implINS0_39current_exception_std_exception_wrapperISt10bad_typeidEEEC1ERKS5_NS5_9clone_tagE
0000000000070c28 W _ZN5boost16exception_detail10clone_implINS0_39current_exception_std_exception_wrapperISt10bad_typeidEEED0Ev
0000000000070b88 W _ZN5boost16exception_detail10clone_implINS0_39current_exception_std_exception_wrapperISt10bad_typeidEEED1Ev
00000000000739de W _ZN5boost16exception_detail10clone_implINS0_39current_exception_std_exception_wrapperISt11logic_errorEEEC1ERKS4_
0000000000069e24 W _ZN5boost16exception_detail10clone_implINS0_39current_exception_std_exception_wrapperISt11logic_errorEEEC1ERKS5_
000000000007ab6e W _ZN5boost16exception_detail10clone_implINS0_39current_exception_std_exception_wrapperISt11logic_errorEEEC1ERKS5_NS5_9clone_tagE
0000000000070088 W _ZN5boost16exception_detail10clone_implINS0_39current_exception_std_exception_wrapperISt11logic_errorEEED0Ev
000000000006ffe8 W _ZN5boost16exception_detail10clone_implINS0_39current_exception_std_exception_wrapperISt11logic_errorEEED1Ev
0000000000073acc W _ZN5boost16exception_detail10clone_implINS0_39current_exception_std_exception_wrapperISt11range_errorEEEC1ERKS4_
000000000006a25c W _ZN5boost16exception_detail10clone_implINS0_39current_exception_std_exception_wrapperISt11range_errorEEEC1ERKS5_
000000000007aaa4 W _ZN5boost16exception_detail10clone_implINS0_39current_exception_std_exception_wrapperISt11range_errorEEEC1ERKS5_NS5_9clone_tagE
00000000000701fc W _ZN5boost16exception_detail10clone_implINS0_39current_exception_std_exception_wrapperISt11range_errorEEED0Ev
000000000007015c W _ZN5boost16exception_detail10clone_implINS0_39current_exception_std_exception_wrapperISt11range_errorEEED1Ev
0000000000073626 W _ZN5boost16exception_detail10clone_implINS0_39current_exception_std_exception_wrapperISt12domain_errorEEEC1ERKS4_
0000000000068dec W _ZN5boost16exception_detail10clone_implINS0_39current_exception_std_exception_wrapperISt12domain_errorEEEC1ERKS5_
000000000007ae96 W _ZN5boost16exception_detail10clone_implINS0_39current_exception_std_exception_wrapperISt12domain_errorEEEC1ERKS5_NS5_9clone_tagE
000000000006fab8 W _ZN5boost16exception_detail10clone_implINS0_39current_exception_std_exception_wrapperISt12domain_errorEEED0Ev
000000000006fa18 W _ZN5boost16exception_detail10clone_implINS0_39current_exception_std_exception_wrapperISt12domain_errorEEED1Ev
0000000000073802 W _ZN5boost16exception_detail10clone_implINS0_39current_exception_std_exception_wrapperISt12length_errorEEEC1ERKS4_
0000000000069624 W _ZN5boost16exception_detail10clone_implINS0_39current_exception_std_exception_wrapperISt12length_errorEEEC1ERKS5_
000000000007ad02 W _ZN5boost16exception_detail10clone_implINS0_39current_exception_std_exception_wrapperISt12length_errorEEEC1ERKS5_NS5_9clone_tagE
000000000006fda0 W _ZN5boost16exception_detail10clone_implINS0_39current_exception_std_exception_wrapperISt12length_errorEEED0Ev
000000000006fd00 W _ZN5boost16exception_detail10clone_implINS0_39current_exception_std_exception_wrapperISt12length_errorEEED1Ev
00000000000738f0 W _ZN5boost16exception_detail10clone_implINS0_39current_exception_std_exception_wrapperISt12out_of_rangeEEEC1ERKS4_
0000000000069a24 W _ZN5boost16exception_detail10clone_implINS0_39current_exception_std_exception_wrapperISt12out_of_rangeEEEC1ERKS5_
000000000007ac38 W _ZN5boost16exception_detail10clone_implINS0_39current_exception_std_exception_wrapperISt12out_of_rangeEEEC1ERKS5_NS5_9clone_tagE
000000000006ff14 W _ZN5boost16exception_detail10clone_implINS0_39current_exception_std_exception_wrapperISt12out_of_rangeEEED0Ev
000000000006fe74 W _ZN5boost16exception_detail10clone_implINS0_39current_exception_std_exception_wrapperISt12out_of_rangeEEED1Ev
000000000007423c W _ZN5boost16exception_detail10clone_implINS0_39current_exception_std_exception_wrapperISt13bad_exceptionEEEC1ERKS4_
000000000006c3b0 W _ZN5boost16exception_detail10clone_implINS0_39current_exception_std_exception_wrapperISt13bad_exceptionEEEC1ERKS5_
000000000007a454 W _ZN5boost16exception_detail10clone_implINS0_39current_exception_std_exception_wrapperISt13bad_exceptionEEEC1ERKS5_NS5_9clone_tagE
0000000000070d9c W _ZN5boost16exception_detail10clone_implINS0_39current_exception_std_exception_wrapperISt13bad_exceptionEEED0Ev
0000000000070cfc W _ZN5boost16exception_detail10clone_implINS0_39current_exception_std_exception_wrapperISt13bad_exceptionEEED1Ev
0000000000073e84 W _ZN5boost16exception_detail10clone_implINS0_39current_exception_std_exception_wrapperISt13runtime_errorEEEC1ERKS4_
000000000006b340 W _ZN5boost16exception_detail10clone_implINS0_39current_exception_std_exception_wrapperISt13runtime_errorEEEC1ERKS5_
000000000007a77c W _ZN5boost16exception_detail10clone_implINS0_39current_exception_std_exception_wrapperISt13runtime_errorEEEC1ERKS5_NS5_9clone_tagE
00000000000707cc W _ZN5boost16exception_detail10clone_implINS0_39current_exception_std_exception_wrapperISt13runtime_errorEEED0Ev
000000000007072c W _ZN5boost16exception_detail10clone_implINS0_39current_exception_std_exception_wrapperISt13runtime_errorEEED1Ev
0000000000073bba W _ZN5boost16exception_detail10clone_implINS0_39current_exception_std_exception_wrapperISt14overflow_errorEEEC1ERKS4_
000000000006a694 W _ZN5boost16exception_detail10clone_implINS0_39current_exception_std_exception_wrapperISt14overflow_errorEEEC1ERKS5_
000000000007a9da W _ZN5boost16exception_detail10clone_implINS0_39current_exception_std_exception_wrapperISt14overflow_errorEEEC1ERKS5_NS5_9clone_tagE
0000000000070370 W _ZN5boost16exception_detail10clone_implINS0_39current_exception_std_exception_wrapperISt14overflow_errorEEED0Ev
00000000000702d0 W _ZN5boost16exception_detail10clone_implINS0_39current_exception_std_exception_wrapperISt14overflow_errorEEED1Ev
0000000000073ca8 W _ZN5boost16exception_detail10clone_implINS0_39current_exception_std_exception_wrapperISt15underflow_errorEEEC1ERKS4_
000000000006aacc W _ZN5boost16exception_detail10clone_implINS0_39current_exception_std_exception_wrapperISt15underflow_errorEEEC1ERKS5_
000000000007a910 W _ZN5boost16exception_detail10clone_implINS0_39current_exception_std_exception_wrapperISt15underflow_errorEEEC1ERKS5_NS5_9clone_tagE
00000000000704e4 W _ZN5boost16exception_detail10clone_implINS0_39current_exception_std_exception_wrapperISt15underflow_errorEEED0Ev
0000000000070444 W _ZN5boost16exception_detail10clone_implINS0_39current_exception_std_exception_wrapperISt15underflow_errorEEED1Ev
0000000000073714 W _ZN5boost16exception_detail10clone_implINS0_39current_exception_std_exception_wrapperISt16invalid_argumentEEEC1ERKS4_
0000000000069224 W _ZN5boost16exception_detail10clone_implINS0_39current_exception_std_exception_wrapperISt16invalid_argumentEEEC1ERKS5_
000000000007adcc W _ZN5boost16exception_detail10clone_implINS0_39current_exception_std_exception_wrapperISt16invalid_argumentEEEC1ERKS5_NS5_9clone_tagE
000000000006fc2c W _ZN5boost16exception_detail10clone_implINS0_39current_exception_std_exception_wrapperISt16invalid_argumentEEED0Ev
000000000006fb8c W _ZN5boost16exception_detail10clone_implINS0_39current_exception_std_exception_wrapperISt16invalid_argumentEEED1Ev
0000000000074060 W _ZN5boost16exception_detail10clone_implINS0_39current_exception_std_exception_wrapperISt8bad_castEEEC1ERKS4_
000000000006bb78 W _ZN5boost16exception_detail10clone_implINS0_39current_exception_std_exception_wrapperISt8bad_castEEEC1ERKS5_
000000000007a5e8 W _ZN5boost16exception_detail10clone_implINS0_39current_exception_std_exception_wrapperISt8bad_castEEEC1ERKS5_NS5_9clone_tagE
0000000000070ab4 W _ZN5boost16exception_detail10clone_implINS0_39current_exception_std_exception_wrapperISt8bad_castEEED0Ev
0000000000070a14 W _ZN5boost16exception_detail10clone_implINS0_39current_exception_std_exception_wrapperISt8bad_castEEED1Ev
0000000000073f72 W _ZN5boost16exception_detail10clone_implINS0_39current_exception_std_exception_wrapperISt9bad_allocEEEC1ERKS4_
000000000006b740 W _ZN5boost16exception_detail10clone_implINS0_39current_exception_std_exception_wrapperISt9bad_allocEEEC1ERKS5_
000000000007a6b2 W _ZN5boost16exception_detail10clone_implINS0_39current_exception_std_exception_wrapperISt9bad_allocEEEC1ERKS5_NS5_9clone_tagE
0000000000070940 W _ZN5boost16exception_detail10clone_implINS0_39current_exception_std_exception_wrapperISt9bad_allocEEED0Ev
00000000000708a0 W _ZN5boost16exception_detail10clone_implINS0_39current_exception_std_exception_wrapperISt9bad_allocEEED1Ev
00000000000712cc W _ZN5boost16exception_detail10clone_implINS_14broken_promiseEEC1ERKS2_
0000000000065a32 W _ZN5boost16exception_detail10clone_implINS_14broken_promiseEEC1ERKS3_
000000000007b0f4 W _ZN5boost16exception_detail10clone_implINS_14broken_promiseEEC1ERKS3_NS3_9clone_tagE
000000000006cd2a W _ZN5boost16exception_detail10clone_implINS_14broken_promiseEED0Ev
000000000006ccac W _ZN5boost16exception_detail10clone_implINS_14broken_promiseEED1Ev
000000000006f6a6 W _ZN5boost16exception_detail10clone_implINS_17unknown_exceptionEEC1ERKS2_
0000000000063d2a W _ZN5boost16exception_detail10clone_implINS_17unknown_exceptionEEC1ERKS3_
000000000007b3dc W _ZN5boost16exception_detail10clone_implINS_17unknown_exceptionEEC1ERKS3_NS3_9clone_tagE
00000000000685c4 W _ZN5boost16exception_detail10clone_implINS_17unknown_exceptionEED0Ev
0000000000068524 W _ZN5boost16exception_detail10clone_implINS_17unknown_exceptionEED1Ev
000000000006046c W _ZN5boost16exception_detail10type_info_C1ERKSt9type_info
000000000006046c W _ZN5boost16exception_detail10type_info_C2ERKSt9type_info
0000000000063ada W _ZN5boost16exception_detail12refcount_ptrINS0_20error_info_containerEE5adoptEPS2_
00000000000682e2 W _ZN5boost16exception_detail12refcount_ptrINS0_20error_info_containerEE7add_refEv
00000000000674be W _ZN5boost16exception_detail12refcount_ptrINS0_20error_info_containerEE7releaseEv
0000000000062aba W _ZN5boost16exception_detail12refcount_ptrINS0_20error_info_containerEEaSERKS3_
0000000000063b3a W _ZN5boost16exception_detail12refcount_ptrINS0_20error_info_containerEEC1ERKS3_
0000000000062a78 W _ZN5boost16exception_detail12refcount_ptrINS0_20error_info_containerEEC1Ev
0000000000063b3a W _ZN5boost16exception_detail12refcount_ptrINS0_20error_info_containerEEC2ERKS3_
0000000000062a78 W _ZN5boost16exception_detail12refcount_ptrINS0_20error_info_containerEEC2Ev
0000000000062a8e W _ZN5boost16exception_detail12refcount_ptrINS0_20error_info_containerEED1Ev
0000000000062a8e W _ZN5boost16exception_detail12refcount_ptrINS0_20error_info_containerEED2Ev
0000000000064330 W _ZN5boost16exception_detail14bad_exception_C1ERKS1_
00000000000642a8 W _ZN5boost16exception_detail14bad_exception_C1Ev
0000000000064330 W _ZN5boost16exception_detail14bad_exception_C2ERKS1_
00000000000642a8 W _ZN5boost16exception_detail14bad_exception_C2Ev
0000000000060dd2 W _ZN5boost16exception_detail14bad_exception_D0Ev
0000000000060d64 W _ZN5boost16exception_detail14bad_exception_D1Ev
0000000000060d64 W _ZN5boost16exception_detail14bad_exception_D2Ev
000000000006f4e2 W _ZN5boost16exception_detail15error_info_baseC1ERKS1_
0000000000068412 W _ZN5boost16exception_detail15error_info_baseC1Ev
000000000006f4e2 W _ZN5boost16exception_detail15error_info_baseC2ERKS1_
0000000000068412 W _ZN5boost16exception_detail15error_info_baseC2Ev
00000000000604f2 W _ZN5boost16exception_detail15error_info_baseD0Ev
00000000000604bc W _ZN5boost16exception_detail15error_info_baseD1Ev
00000000000604bc W _ZN5boost16exception_detail15error_info_baseD2Ev
000000000007bef3 W _ZN5boost16exception_detail15object_hex_dumpINS_10error_infoINS_27tag_original_exception_typeEPKSt9type_infoEEEESsRKT_m
000000000007bbb1 W _ZN5boost16exception_detail16string_stub_dumpINS_10error_infoINS_27tag_original_exception_typeEPKSt9type_infoEEEESsRKT_
000000000007bc5b W _ZN5boost16exception_detail18to_string_dispatch8dispatchINS_10error_infoINS_27tag_original_exception_typeEPKSt9type_infoEEPFSsRKS8_EEESsRKT_T0_
000000000006e794 W _ZN5boost16exception_detail19error_info_injectorINS_10lock_errorEEC1ERKS2_
0000000000062e1e W _ZN5boost16exception_detail19error_info_injectorINS_10lock_errorEEC1ERKS3_
000000000006e794 W _ZN5boost16exception_detail19error_info_injectorINS_10lock_errorEEC2ERKS2_
0000000000062e1e W _ZN5boost16exception_detail19error_info_injectorINS_10lock_errorEEC2ERKS3_
000000000006776e W _ZN5boost16exception_detail19error_info_injectorINS_10lock_errorEED0Ev
0000000000067700 W _ZN5boost16exception_detail19error_info_injectorINS_10lock_errorEED1Ev
0000000000067700 W _ZN5boost16exception_detail19error_info_injectorINS_10lock_errorEED2Ev
0000000000071366 W _ZN5boost16exception_detail19error_info_injectorINS_13promise_movedEEC1ERKS2_
0000000000065c0a W _ZN5boost16exception_detail19error_info_injectorINS_13promise_movedEEC1ERKS3_
0000000000071366 W _ZN5boost16exception_detail19error_info_injectorINS_13promise_movedEEC2ERKS2_
0000000000065c0a W _ZN5boost16exception_detail19error_info_injectorINS_13promise_movedEEC2ERKS3_
000000000006cdf0 W _ZN5boost16exception_detail19error_info_injectorINS_13promise_movedEED0Ev
000000000006cd82 W _ZN5boost16exception_detail19error_info_injectorINS_13promise_movedEED1Ev
000000000006cd82 W _ZN5boost16exception_detail19error_info_injectorINS_13promise_movedEED2Ev
000000000006ed8a W _ZN5boost16exception_detail19error_info_injectorINS_15condition_errorEEC1ERKS2_
00000000000633f4 W _ZN5boost16exception_detail19error_info_injectorINS_15condition_errorEEC1ERKS3_
000000000006ed8a W _ZN5boost16exception_detail19error_info_injectorINS_15condition_errorEEC2ERKS2_
00000000000633f4 W _ZN5boost16exception_detail19error_info_injectorINS_15condition_errorEEC2ERKS3_
0000000000067e50 W _ZN5boost16exception_detail19error_info_injectorINS_15condition_errorEED0Ev
0000000000067de2 W _ZN5boost16exception_detail19error_info_injectorINS_15condition_errorEED1Ev
0000000000067de2 W _ZN5boost16exception_detail19error_info_injectorINS_15condition_errorEED2Ev
0000000000074378 W _ZN5boost16exception_detail19error_info_injectorINS_17bad_function_callEEC1ERKS2_
000000000006c822 W _ZN5boost16exception_detail19error_info_injectorINS_17bad_function_callEEC1ERKS3_
0000000000074378 W _ZN5boost16exception_detail19error_info_injectorINS_17bad_function_callEEC2ERKS2_
000000000006c822 W _ZN5boost16exception_detail19error_info_injectorINS_17bad_function_callEEC2ERKS3_
0000000000071054 W _ZN5boost16exception_detail19error_info_injectorINS_17bad_function_callEED0Ev
0000000000070fe6 W _ZN5boost16exception_detail19error_info_injectorINS_17bad_function_callEED1Ev
0000000000070fe6 W _ZN5boost16exception_detail19error_info_injectorINS_17bad_function_callEED2Ev
0000000000074f08 W _ZN5boost16exception_detail19error_info_injectorINS_20future_uninitializedEEC1ERKS2_
000000000006dd2a W _ZN5boost16exception_detail19error_info_injectorINS_20future_uninitializedEEC1ERKS3_
0000000000074f08 W _ZN5boost16exception_detail19error_info_injectorINS_20future_uninitializedEEC2ERKS2_
000000000006dd2a W _ZN5boost16exception_detail19error_info_injectorINS_20future_uninitializedEEC2ERKS3_
0000000000071fc0 W _ZN5boost16exception_detail19error_info_injectorINS_20future_uninitializedEED0Ev
0000000000071f52 W _ZN5boost16exception_detail19error_info_injectorINS_20future_uninitializedEED1Ev
0000000000071f52 W _ZN5boost16exception_detail19error_info_injectorINS_20future_uninitializedEED2Ev
000000000006e64e W _ZN5boost16exception_detail19error_info_injectorINS_21thread_resource_errorEEC1ERKS2_
0000000000062c02 W _ZN5boost16exception_detail19error_info_injectorINS_21thread_resource_errorEEC1ERKS3_
000000000006e64e W _ZN5boost16exception_detail19error_info_injectorINS_21thread_resource_errorEEC2ERKS2_
0000000000062c02 W _ZN5boost16exception_detail19error_info_injectorINS_21thread_resource_errorEEC2ERKS3_
00000000000675ac W _ZN5boost16exception_detail19error_info_injectorINS_21thread_resource_errorEED0Ev
000000000006753e W _ZN5boost16exception_detail19error_info_injectorINS_21thread_resource_errorEED1Ev
000000000006753e W _ZN5boost16exception_detail19error_info_injectorINS_21thread_resource_errorEED2Ev
00000000000714ac W _ZN5boost16exception_detail19error_info_injectorINS_24future_already_retrievedEEC1ERKS2_
0000000000065e84 W _ZN5boost16exception_detail19error_info_injectorINS_24future_already_retrievedEEC1ERKS3_
00000000000714ac W _ZN5boost16exception_detail19error_info_injectorINS_24future_already_retrievedEEC2ERKS2_
0000000000065e84 W _ZN5boost16exception_detail19error_info_injectorINS_24future_already_retrievedEEC2ERKS3_
000000000006cfb2 W _ZN5boost16exception_detail19error_info_injectorINS_24future_already_retrievedEED0Ev
000000000006cf44 W _ZN5boost16exception_detail19error_info_injectorINS_24future_already_retrievedEED1Ev
000000000006cf44 W _ZN5boost16exception_detail19error_info_injectorINS_24future_already_retrievedEED2Ev
0000000000071180 W _ZN5boost16exception_detail19error_info_injectorINS_25promise_already_satisfiedEEC1ERKS2_
00000000000657b8 W _ZN5boost16exception_detail19error_info_injectorINS_25promise_already_satisfiedEEC1ERKS3_
0000000000071180 W _ZN5boost16exception_detail19error_info_injectorINS_25promise_already_satisfiedEEC2ERKS2_
00000000000657b8 W _ZN5boost16exception_detail19error_info_injectorINS_25promise_already_satisfiedEEC2ERKS3_
000000000006caa8 W _ZN5boost16exception_detail19error_info_injectorINS_25promise_already_satisfiedEED0Ev
000000000006ca3a W _ZN5boost16exception_detail19error_info_injectorINS_25promise_already_satisfiedEED1Ev
000000000006ca3a W _ZN5boost16exception_detail19error_info_injectorINS_25promise_already_satisfiedEED2Ev
000000000006acbe W _ZN5boost16exception_detail19get_boost_exceptionINSt8ios_base7failureEEEPKNS_9exceptionEPKT_
000000000006bd6a W _ZN5boost16exception_detail19get_boost_exceptionISt10bad_typeidEEPKNS_9exceptionEPKT_
0000000000069c16 W _ZN5boost16exception_detail19get_boost_exceptionISt11logic_errorEEPKNS_9exceptionEPKT_
000000000006a016 W _ZN5boost16exception_detail19get_boost_exceptionISt11range_errorEEPKNS_9exceptionEPKT_
0000000000068ba6 W _ZN5boost16exception_detail19get_boost_exceptionISt12domain_errorEEPKNS_9exceptionEPKT_
0000000000069416 W _ZN5boost16exception_detail19get_boost_exceptionISt12length_errorEEPKNS_9exceptionEPKT_
0000000000069816 W _ZN5boost16exception_detail19get_boost_exceptionISt12out_of_rangeEEPKNS_9exceptionEPKT_
000000000006c1a2 W _ZN5boost16exception_detail19get_boost_exceptionISt13bad_exceptionEEPKNS_9exceptionEPKT_
000000000006b132 W _ZN5boost16exception_detail19get_boost_exceptionISt13runtime_errorEEPKNS_9exceptionEPKT_
000000000006a44e W _ZN5boost16exception_detail19get_boost_exceptionISt14overflow_errorEEPKNS_9exceptionEPKT_
000000000006a886 W _ZN5boost16exception_detail19get_boost_exceptionISt15underflow_errorEEPKNS_9exceptionEPKT_
0000000000068fde W _ZN5boost16exception_detail19get_boost_exceptionISt16invalid_argumentEEPKNS_9exceptionEPKT_
000000000006b932 W _ZN5boost16exception_detail19get_boost_exceptionISt8bad_castEEPKNS_9exceptionEPKT_
000000000006b532 W _ZN5boost16exception_detail19get_boost_exceptionISt9bad_allocEEPKNS_9exceptionEPKT_
0000000000063e78 W _ZN5boost16exception_detail19get_boost_exceptionISt9exceptionEEPKNS_9exceptionEPKT_
000000000005ec00 W _ZN5boost16exception_detail20copy_boost_exceptionEPNS_9exceptionEPKS1_
000000000005ecfa W _ZN5boost16exception_detail20copy_boost_exceptionEPvPKv
0000000000060518 W _ZN5boost16exception_detail20error_info_containerC1Ev
0000000000060518 W _ZN5boost16exception_detail20error_info_containerC2Ev
000000000005eab0 W _ZN5boost16exception_detail20error_info_containerD1Ev
000000000005eab0 W _ZN5boost16exception_detail20error_info_containerD2Ev
000000000007c241 W _ZN5boost16exception_detail20to_string_dispatcherILb1EE7convertINS_10error_infoINS_27tag_original_exception_typeEPKSt9type_infoEEPFSsRKS9_EEESsRKT_T0_
000000000006122c W _ZN5boost16exception_detail22current_exception_implEv
0000000000060b45 W _ZN5boost16exception_detail23clone_current_exceptionERPKNS0_10clone_baseE
000000000006067a W _ZN5boost16exception_detail25error_info_container_impl3setERKNS_10shared_ptrINS0_15error_info_baseEEERKNS0_10type_info_E
000000000006054e W _ZN5boost16exception_detail25error_info_container_implC1Ev
000000000006054e W _ZN5boost16exception_detail25error_info_container_implC2Ev
00000000000605dc W _ZN5boost16exception_detail25error_info_container_implD1Ev
00000000000605dc W _ZN5boost16exception_detail25error_info_container_implD2Ev
0000000000064090 W _ZN5boost16exception_detail27get_static_exception_objectINS0_10bad_alloc_EEENS_13exception_ptrEv
000000000006444e W _ZN5boost16exception_detail27get_static_exception_objectINS0_14bad_exception_EEENS_13exception_ptrEv
000000000007f438 r _ZN5boost16exception_detail30clone_current_exception_resultL13bad_exceptionE
0000000000082208 r _ZN5boost16exception_detail30clone_current_exception_resultL13bad_exceptionE
000000000007f43c r _ZN5boost16exception_detail30clone_current_exception_resultL13not_supportedE
000000000008220c r _ZN5boost16exception_detail30clone_current_exception_resultL13not_supportedE
000000000007f430 r _ZN5boost16exception_detail30clone_current_exception_resultL7successE
0000000000082200 r _ZN5boost16exception_detail30clone_current_exception_resultL7successE
000000000007f434 r _ZN5boost16exception_detail30clone_current_exception_resultL9bad_allocE
0000000000082204 r _ZN5boost16exception_detail30clone_current_exception_resultL9bad_allocE
0000000000064cfd W _ZN5boost16exception_detail31current_exception_std_exceptionINSt8ios_base7failureEEENS_13exception_ptrERKT_
0000000000065049 W _ZN5boost16exception_detail31current_exception_std_exceptionISt10bad_typeidEENS_13exception_ptrERKT_
00000000000649b1 W _ZN5boost16exception_detail31current_exception_std_exceptionISt11logic_errorEENS_13exception_ptrERKT_
0000000000064a84 W _ZN5boost16exception_detail31current_exception_std_exceptionISt11range_errorEENS_13exception_ptrERKT_
0000000000064665 W _ZN5boost16exception_detail31current_exception_std_exceptionISt12domain_errorEENS_13exception_ptrERKT_
000000000006480b W _ZN5boost16exception_detail31current_exception_std_exceptionISt12length_errorEENS_13exception_ptrERKT_
00000000000648de W _ZN5boost16exception_detail31current_exception_std_exceptionISt12out_of_rangeEENS_13exception_ptrERKT_
000000000006511c W _ZN5boost16exception_detail31current_exception_std_exceptionISt13bad_exceptionEENS_13exception_ptrERKT_
0000000000064dd0 W _ZN5boost16exception_detail31current_exception_std_exceptionISt13runtime_errorEENS_13exception_ptrERKT_
0000000000064b57 W _ZN5boost16exception_detail31current_exception_std_exceptionISt14overflow_errorEENS_13exception_ptrERKT_
0000000000064c2a W _ZN5boost16exception_detail31current_exception_std_exceptionISt15underflow_errorEENS_13exception_ptrERKT_
0000000000064738 W _ZN5boost16exception_detail31current_exception_std_exceptionISt16invalid_argumentEENS_13exception_ptrERKT_
0000000000064f76 W _ZN5boost16exception_detail31current_exception_std_exceptionISt8bad_castEENS_13exception_ptrERKT_
0000000000064ea3 W _ZN5boost16exception_detail31current_exception_std_exceptionISt9bad_allocEENS_13exception_ptrERKT_
00000000000610cd W _ZN5boost16exception_detail35current_exception_unknown_exceptionEv
000000000029bd90 u _ZN5boost16exception_detail37exception_ptr_static_exception_objectINS0_10bad_alloc_EE1eE
000000000029bda0 u _ZN5boost16exception_detail37exception_ptr_static_exception_objectINS0_14bad_exception_EE1eE
000000000007051a W _ZN5boost16exception_detail39current_exception_std_exception_wrapperINSt8ios_base7failureEE17add_original_typeIS3_EEvRKT_
000000000006b08e W _ZN5boost16exception_detail39current_exception_std_exception_wrapperINSt8ios_base7failureEEC1ERKS3_
000000000006ad6e W _ZN5boost16exception_detail39current_exception_std_exception_wrapperINSt8ios_base7failureEEC1ERKS3_RKNS_9exceptionE
000000000006aeb8 W _ZN5boost16exception_detail39current_exception_std_exception_wrapperINSt8ios_base7failureEEC1ERKS4_
000000000006b08e W _ZN5boost16exception_detail39current_exception_std_exception_wrapperINSt8ios_base7failureEEC2ERKS3_
000000000006ad6e W _ZN5boost16exception_detail39current_exception_std_exception_wrapperINSt8ios_base7failureEEC2ERKS3_RKNS_9exceptionE
000000000006aeb8 W _ZN5boost16exception_detail39current_exception_std_exception_wrapperINSt8ios_base7failureEEC2ERKS4_
000000000006ae8c W _ZN5boost16exception_detail39current_exception_std_exception_wrapperINSt8ios_base7failureEED0Ev
000000000006ae1e W _ZN5boost16exception_detail39current_exception_std_exception_wrapperINSt8ios_base7failureEED1Ev
000000000006ae1e W _ZN5boost16exception_detail39current_exception_std_exception_wrapperINSt8ios_base7failureEED2Ev
0000000000070aea W _ZN5boost16exception_detail39current_exception_std_exception_wrapperISt10bad_typeidE17add_original_typeIS2_EEvRKT_
000000000006c0fe W _ZN5boost16exception_detail39current_exception_std_exception_wrapperISt10bad_typeidEC1ERKS2_
000000000006bdde W _ZN5boost16exception_detail39current_exception_std_exception_wrapperISt10bad_typeidEC1ERKS2_RKNS_9exceptionE
000000000006bf28 W _ZN5boost16exception_detail39current_exception_std_exception_wrapperISt10bad_typeidEC1ERKS3_
000000000006c0fe W _ZN5boost16exception_detail39current_exception_std_exception_wrapperISt10bad_typeidEC2ERKS2_
000000000006bdde W _ZN5boost16exception_detail39current_exception_std_exception_wrapperISt10bad_typeidEC2ERKS2_RKNS_9exceptionE
000000000006bf28 W _ZN5boost16exception_detail39current_exception_std_exception_wrapperISt10bad_typeidEC2ERKS3_
000000000006befc W _ZN5boost16exception_detail39current_exception_std_exception_wrapperISt10bad_typeidED0Ev
000000000006be8e W _ZN5boost16exception_detail39current_exception_std_exception_wrapperISt10bad_typeidED1Ev
000000000006be8e W _ZN5boost16exception_detail39current_exception_std_exception_wrapperISt10bad_typeidED2Ev
000000000006ff4a W _ZN5boost16exception_detail39current_exception_std_exception_wrapperISt11logic_errorE17add_original_typeIS2_EEvRKT_
0000000000069f72 W _ZN5boost16exception_detail39current_exception_std_exception_wrapperISt11logic_errorEC1ERKS2_
0000000000069c52 W _ZN5boost16exception_detail39current_exception_std_exception_wrapperISt11logic_errorEC1ERKS2_RKNS_9exceptionE
0000000000069d9c W _ZN5boost16exception_detail39current_exception_std_exception_wrapperISt11logic_errorEC1ERKS3_
0000000000069f72 W _ZN5boost16exception_detail39current_exception_std_exception_wrapperISt11logic_errorEC2ERKS2_
0000000000069c52 W _ZN5boost16exception_detail39current_exception_std_exception_wrapperISt11logic_errorEC2ERKS2_RKNS_9exceptionE
0000000000069d9c W _ZN5boost16exception_detail39current_exception_std_exception_wrapperISt11logic_errorEC2ERKS3_
0000000000069d70 W _ZN5boost16exception_detail39current_exception_std_exception_wrapperISt11logic_errorED0Ev
0000000000069d02 W _ZN5boost16exception_detail39current_exception_std_exception_wrapperISt11logic_errorED1Ev
0000000000069d02 W _ZN5boost16exception_detail39current_exception_std_exception_wrapperISt11logic_errorED2Ev
00000000000700be W _ZN5boost16exception_detail39current_exception_std_exception_wrapperISt11range_errorE17add_original_typeIS2_EEvRKT_
000000000006a3aa W _ZN5boost16exception_detail39current_exception_std_exception_wrapperISt11range_errorEC1ERKS2_
000000000006a08a W _ZN5boost16exception_detail39current_exception_std_exception_wrapperISt11range_errorEC1ERKS2_RKNS_9exceptionE
000000000006a1d4 W _ZN5boost16exception_detail39current_exception_std_exception_wrapperISt11range_errorEC1ERKS3_
000000000006a3aa W _ZN5boost16exception_detail39current_exception_std_exception_wrapperISt11range_errorEC2ERKS2_
000000000006a08a W _ZN5boost16exception_detail39current_exception_std_exception_wrapperISt11range_errorEC2ERKS2_RKNS_9exceptionE
000000000006a1d4 W _ZN5boost16exception_detail39current_exception_std_exception_wrapperISt11range_errorEC2ERKS3_
000000000006a1a8 W _ZN5boost16exception_detail39current_exception_std_exception_wrapperISt11range_errorED0Ev
000000000006a13a W _ZN5boost16exception_detail39current_exception_std_exception_wrapperISt11range_errorED1Ev
000000000006a13a W _ZN5boost16exception_detail39current_exception_std_exception_wrapperISt11range_errorED2Ev
000000000006f97a W _ZN5boost16exception_detail39current_exception_std_exception_wrapperISt12domain_errorE17add_original_typeIS2_EEvRKT_
0000000000068f3a W _ZN5boost16exception_detail39current_exception_std_exception_wrapperISt12domain_errorEC1ERKS2_
0000000000068c1a W _ZN5boost16exception_detail39current_exception_std_exception_wrapperISt12domain_errorEC1ERKS2_RKNS_9exceptionE
0000000000068d64 W _ZN5boost16exception_detail39current_exception_std_exception_wrapperISt12domain_errorEC1ERKS3_
0000000000068f3a W _ZN5boost16exception_detail39current_exception_std_exception_wrapperISt12domain_errorEC2ERKS2_
0000000000068c1a W _ZN5boost16exception_detail39current_exception_std_exception_wrapperISt12domain_errorEC2ERKS2_RKNS_9exceptionE
0000000000068d64 W _ZN5boost16exception_detail39current_exception_std_exception_wrapperISt12domain_errorEC2ERKS3_
0000000000068d38 W _ZN5boost16exception_detail39current_exception_std_exception_wrapperISt12domain_errorED0Ev
0000000000068cca W _ZN5boost16exception_detail39current_exception_std_exception_wrapperISt12domain_errorED1Ev
0000000000068cca W _ZN5boost16exception_detail39current_exception_std_exception_wrapperISt12domain_errorED2Ev
000000000006fc62 W _ZN5boost16exception_detail39current_exception_std_exception_wrapperISt12length_errorE17add_original_typeIS2_EEvRKT_
0000000000069772 W _ZN5boost16exception_detail39current_exception_std_exception_wrapperISt12length_errorEC1ERKS2_
0000000000069452 W _ZN5boost16exception_detail39current_exception_std_exception_wrapperISt12length_errorEC1ERKS2_RKNS_9exceptionE
000000000006959c W _ZN5boost16exception_detail39current_exception_std_exception_wrapperISt12length_errorEC1ERKS3_
0000000000069772 W _ZN5boost16exception_detail39current_exception_std_exception_wrapperISt12length_errorEC2ERKS2_
0000000000069452 W _ZN5boost16exception_detail39current_exception_std_exception_wrapperISt12length_errorEC2ERKS2_RKNS_9exceptionE
000000000006959c W _ZN5boost16exception_detail39current_exception_std_exception_wrapperISt12length_errorEC2ERKS3_
0000000000069570 W _ZN5boost16exception_detail39current_exception_std_exception_wrapperISt12length_errorED0Ev
0000000000069502 W _ZN5boost16exception_detail39current_exception_std_exception_wrapperISt12length_errorED1Ev
0000000000069502 W _ZN5boost16exception_detail39current_exception_std_exception_wrapperISt12length_errorED2Ev
000000000006fdd6 W _ZN5boost16exception_detail39current_exception_std_exception_wrapperISt12out_of_rangeE17add_original_typeIS2_EEvRKT_
0000000000069b72 W _ZN5boost16exception_detail39current_exception_std_exception_wrapperISt12out_of_rangeEC1ERKS2_
0000000000069852 W _ZN5boost16exception_detail39current_exception_std_exception_wrapperISt12out_of_rangeEC1ERKS2_RKNS_9exceptionE
000000000006999c W _ZN5boost16exception_detail39current_exception_std_exception_wrapperISt12out_of_rangeEC1ERKS3_
0000000000069b72 W _ZN5boost16exception_detail39current_exception_std_exception_wrapperISt12out_of_rangeEC2ERKS2_
0000000000069852 W _ZN5boost16exception_detail39current_exception_std_exception_wrapperISt12out_of_rangeEC2ERKS2_RKNS_9exceptionE
000000000006999c W _ZN5boost16exception_detail39current_exception_std_exception_wrapperISt12out_of_rangeEC2ERKS3_
0000000000069970 W _ZN5boost16exception_detail39current_exception_std_exception_wrapperISt12out_of_rangeED0Ev
0000000000069902 W _ZN5boost16exception_detail39current_exception_std_exception_wrapperISt12out_of_rangeED1Ev
0000000000069902 W _ZN5boost16exception_detail39current_exception_std_exception_wrapperISt12out_of_rangeED2Ev
0000000000070c5e W _ZN5boost16exception_detail39current_exception_std_exception_wrapperISt13bad_exceptionE17add_original_typeIS2_EEvRKT_
000000000006c4fe W _ZN5boost16exception_detail39current_exception_std_exception_wrapperISt13bad_exceptionEC1ERKS2_
000000000006c1de W _ZN5boost16exception_detail39current_exception_std_exception_wrapperISt13bad_exceptionEC1ERKS2_RKNS_9exceptionE
000000000006c328 W _ZN5boost16exception_detail39current_exception_std_exception_wrapperISt13bad_exceptionEC1ERKS3_
000000000006c4fe W _ZN5boost16exception_detail39current_exception_std_exception_wrapperISt13bad_exceptionEC2ERKS2_
000000000006c1de W _ZN5boost16exception_detail39current_exception_std_exception_wrapperISt13bad_exceptionEC2ERKS2_RKNS_9exceptionE
000000000006c328 W _ZN5boost16exception_detail39current_exception_std_exception_wrapperISt13bad_exceptionEC2ERKS3_
000000000006c2fc W _ZN5boost16exception_detail39current_exception_std_exception_wrapperISt13bad_exceptionED0Ev
000000000006c28e W _ZN5boost16exception_detail39current_exception_std_exception_wrapperISt13bad_exceptionED1Ev
000000000006c28e W _ZN5boost16exception_detail39current_exception_std_exception_wrapperISt13bad_exceptionED2Ev
000000000007068e W _ZN5boost16exception_detail39current_exception_std_exception_wrapperISt13runtime_errorE17add_original_typeIS2_EEvRKT_
000000000006b48e W _ZN5boost16exception_detail39current_exception_std_exception_wrapperISt13runtime_errorEC1ERKS2_
000000000006b16e W _ZN5boost16exception_detail39current_exception_std_exception_wrapperISt13runtime_errorEC1ERKS2_RKNS_9exceptionE
000000000006b2b8 W _ZN5boost16exception_detail39current_exception_std_exception_wrapperISt13runtime_errorEC1ERKS3_
000000000006b48e W _ZN5boost16exception_detail39current_exception_std_exception_wrapperISt13runtime_errorEC2ERKS2_
000000000006b16e W _ZN5boost16exception_detail39current_exception_std_exception_wrapperISt13runtime_errorEC2ERKS2_RKNS_9exceptionE
000000000006b2b8 W _ZN5boost16exception_detail39current_exception_std_exception_wrapperISt13runtime_errorEC2ERKS3_
000000000006b28c W _ZN5boost16exception_detail39current_exception_std_exception_wrapperISt13runtime_errorED0Ev
000000000006b21e W _ZN5boost16exception_detail39current_exception_std_exception_wrapperISt13runtime_errorED1Ev
000000000006b21e W _ZN5boost16exception_detail39current_exception_std_exception_wrapperISt13runtime_errorED2Ev
0000000000070232 W _ZN5boost16exception_detail39current_exception_std_exception_wrapperISt14overflow_errorE17add_original_typeIS2_EEvRKT_
000000000006a7e2 W _ZN5boost16exception_detail39current_exception_std_exception_wrapperISt14overflow_errorEC1ERKS2_
000000000006a4c2 W _ZN5boost16exception_detail39current_exception_std_exception_wrapperISt14overflow_errorEC1ERKS2_RKNS_9exceptionE
000000000006a60c W _ZN5boost16exception_detail39current_exception_std_exception_wrapperISt14overflow_errorEC1ERKS3_
000000000006a7e2 W _ZN5boost16exception_detail39current_exception_std_exception_wrapperISt14overflow_errorEC2ERKS2_
000000000006a4c2 W _ZN5boost16exception_detail39current_exception_std_exception_wrapperISt14overflow_errorEC2ERKS2_RKNS_9exceptionE
000000000006a60c W _ZN5boost16exception_detail39current_exception_std_exception_wrapperISt14overflow_errorEC2ERKS3_
000000000006a5e0 W _ZN5boost16exception_detail39current_exception_std_exception_wrapperISt14overflow_errorED0Ev
000000000006a572 W _ZN5boost16exception_detail39current_exception_std_exception_wrapperISt14overflow_errorED1Ev
000000000006a572 W _ZN5boost16exception_detail39current_exception_std_exception_wrapperISt14overflow_errorED2Ev
00000000000703a6 W _ZN5boost16exception_detail39current_exception_std_exception_wrapperISt15underflow_errorE17add_original_typeIS2_EEvRKT_
000000000006ac1a W _ZN5boost16exception_detail39current_exception_std_exception_wrapperISt15underflow_errorEC1ERKS2_
000000000006a8fa W _ZN5boost16exception_detail39current_exception_std_exception_wrapperISt15underflow_errorEC1ERKS2_RKNS_9exceptionE
000000000006aa44 W _ZN5boost16exception_detail39current_exception_std_exception_wrapperISt15underflow_errorEC1ERKS3_
000000000006ac1a W _ZN5boost16exception_detail39current_exception_std_exception_wrapperISt15underflow_errorEC2ERKS2_
000000000006a8fa W _ZN5boost16exception_detail39current_exception_std_exception_wrapperISt15underflow_errorEC2ERKS2_RKNS_9exceptionE
000000000006aa44 W _ZN5boost16exception_detail39current_exception_std_exception_wrapperISt15underflow_errorEC2ERKS3_
000000000006aa18 W _ZN5boost16exception_detail39current_exception_std_exception_wrapperISt15underflow_errorED0Ev
000000000006a9aa W _ZN5boost16exception_detail39current_exception_std_exception_wrapperISt15underflow_errorED1Ev
000000000006a9aa W _ZN5boost16exception_detail39current_exception_std_exception_wrapperISt15underflow_errorED2Ev
000000000006faee W _ZN5boost16exception_detail39current_exception_std_exception_wrapperISt16invalid_argumentE17add_original_typeIS2_EEvRKT_
0000000000069372 W _ZN5boost16exception_detail39current_exception_std_exception_wrapperISt16invalid_argumentEC1ERKS2_
0000000000069052 W _ZN5boost16exception_detail39current_exception_std_exception_wrapperISt16invalid_argumentEC1ERKS2_RKNS_9exceptionE
000000000006919c W _ZN5boost16exception_detail39current_exception_std_exception_wrapperISt16invalid_argumentEC1ERKS3_
0000000000069372 W _ZN5boost16exception_detail39current_exception_std_exception_wrapperISt16invalid_argumentEC2ERKS2_
0000000000069052 W _ZN5boost16exception_detail39current_exception_std_exception_wrapperISt16invalid_argumentEC2ERKS2_RKNS_9exceptionE
000000000006919c W _ZN5boost16exception_detail39current_exception_std_exception_wrapperISt16invalid_argumentEC2ERKS3_
0000000000069170 W _ZN5boost16exception_detail39current_exception_std_exception_wrapperISt16invalid_argumentED0Ev
0000000000069102 W _ZN5boost16exception_detail39current_exception_std_exception_wrapperISt16invalid_argumentED1Ev
0000000000069102 W _ZN5boost16exception_detail39current_exception_std_exception_wrapperISt16invalid_argumentED2Ev
0000000000070976 W _ZN5boost16exception_detail39current_exception_std_exception_wrapperISt8bad_castE17add_original_typeIS2_EEvRKT_
000000000006bcc6 W _ZN5boost16exception_detail39current_exception_std_exception_wrapperISt8bad_castEC1ERKS2_
000000000006b9a6 W _ZN5boost16exception_detail39current_exception_std_exception_wrapperISt8bad_castEC1ERKS2_RKNS_9exceptionE
000000000006baf0 W _ZN5boost16exception_detail39current_exception_std_exception_wrapperISt8bad_castEC1ERKS3_
000000000006bcc6 W _ZN5boost16exception_detail39current_exception_std_exception_wrapperISt8bad_castEC2ERKS2_
000000000006b9a6 W _ZN5boost16exception_detail39current_exception_std_exception_wrapperISt8bad_castEC2ERKS2_RKNS_9exceptionE
000000000006baf0 W _ZN5boost16exception_detail39current_exception_std_exception_wrapperISt8bad_castEC2ERKS3_
000000000006bac4 W _ZN5boost16exception_detail39current_exception_std_exception_wrapperISt8bad_castED0Ev
000000000006ba56 W _ZN5boost16exception_detail39current_exception_std_exception_wrapperISt8bad_castED1Ev
000000000006ba56 W _ZN5boost16exception_detail39current_exception_std_exception_wrapperISt8bad_castED2Ev
0000000000070802 W _ZN5boost16exception_detail39current_exception_std_exception_wrapperISt9bad_allocE17add_original_typeIS2_EEvRKT_
000000000006b88e W _ZN5boost16exception_detail39current_exception_std_exception_wrapperISt9bad_allocEC1ERKS2_
000000000006b56e W _ZN5boost16exception_detail39current_exception_std_exception_wrapperISt9bad_allocEC1ERKS2_RKNS_9exceptionE
000000000006b6b8 W _ZN5boost16exception_detail39current_exception_std_exception_wrapperISt9bad_allocEC1ERKS3_
000000000006b88e W _ZN5boost16exception_detail39current_exception_std_exception_wrapperISt9bad_allocEC2ERKS2_
000000000006b56e W _ZN5boost16exception_detail39current_exception_std_exception_wrapperISt9bad_allocEC2ERKS2_RKNS_9exceptionE
000000000006b6b8 W _ZN5boost16exception_detail39current_exception_std_exception_wrapperISt9bad_allocEC2ERKS3_
000000000006b68c W _ZN5boost16exception_detail39current_exception_std_exception_wrapperISt9bad_allocED0Ev
000000000006b61e W _ZN5boost16exception_detail39current_exception_std_exception_wrapperISt9bad_allocED1Ev
000000000006b61e W _ZN5boost16exception_detail39current_exception_std_exception_wrapperISt9bad_allocED2Ev
0000000000061196 W _ZN5boost16exception_detail39current_exception_unknown_std_exceptionERKSt9exception
000000000006112c W _ZN5boost16exception_detail41current_exception_unknown_boost_exceptionERKNS_9exceptionE
000000000006f811 W _ZN5boost16exception_detail8set_infoINS0_10clone_implINS0_10bad_alloc_EEEEERKT_S7_RKNS_10error_infoINS_11throw_file_EPKcEE
000000000006f832 W _ZN5boost16exception_detail8set_infoINS0_10clone_implINS0_10bad_alloc_EEEEERKT_S7_RKNS_10error_infoINS_11throw_line_EiEE
000000000006f7f0 W _ZN5boost16exception_detail8set_infoINS0_10clone_implINS0_10bad_alloc_EEEEERKT_S7_RKNS_10error_infoINS_15throw_function_EPKcEE
000000000006f8d6 W _ZN5boost16exception_detail8set_infoINS0_10clone_implINS0_14bad_exception_EEEEERKT_S7_RKNS_10error_infoINS_11throw_file_EPKcEE
000000000006f8f7 W _ZN5boost16exception_detail8set_infoINS0_10clone_implINS0_14bad_exception_EEEEERKT_S7_RKNS_10error_infoINS_11throw_line_EiEE
000000000006f8b5 W _ZN5boost16exception_detail8set_infoINS0_10clone_implINS0_14bad_exception_EEEEERKT_S7_RKNS_10error_infoINS_15throw_function_EPKcEE
00000000000766ba W _ZN5boost16exception_detail8set_infoINS0_39current_exception_std_exception_wrapperINSt8ios_base7failureEEENS_27tag_original_exception_typeEPKSt9type_infoEERKT_SC_RKNS_10error_infoIT0_T1_EE
0000000000076bae W _ZN5boost16exception_detail8set_infoINS0_39current_exception_std_exception_wrapperISt10bad_typeidEENS_27tag_original_exception_typeEPKSt9type_infoEERKT_SB_RKNS_10error_infoIT0_T1_EE
00000000000761c6 W _ZN5boost16exception_detail8set_infoINS0_39current_exception_std_exception_wrapperISt11logic_errorEENS_27tag_original_exception_typeEPKSt9type_infoEERKT_SB_RKNS_10error_infoIT0_T1_EE
0000000000076303 W _ZN5boost16exception_detail8set_infoINS0_39current_exception_std_exception_wrapperISt11range_errorEENS_27tag_original_exception_typeEPKSt9type_infoEERKT_SB_RKNS_10error_infoIT0_T1_EE
0000000000075cd2 W _ZN5boost16exception_detail8set_infoINS0_39current_exception_std_exception_wrapperISt12domain_errorEENS_27tag_original_exception_typeEPKSt9type_infoEERKT_SB_RKNS_10error_infoIT0_T1_EE
0000000000075f4c W _ZN5boost16exception_detail8set_infoINS0_39current_exception_std_exception_wrapperISt12length_errorEENS_27tag_original_exception_typeEPKSt9type_infoEERKT_SB_RKNS_10error_infoIT0_T1_EE
0000000000076089 W _ZN5boost16exception_detail8set_infoINS0_39current_exception_std_exception_wrapperISt12out_of_rangeEENS_27tag_original_exception_typeEPKSt9type_infoEERKT_SB_RKNS_10error_infoIT0_T1_EE
0000000000076ceb W _ZN5boost16exception_detail8set_infoINS0_39current_exception_std_exception_wrapperISt13bad_exceptionEENS_27tag_original_exception_typeEPKSt9type_infoEERKT_SB_RKNS_10error_infoIT0_T1_EE
00000000000767f7 W _ZN5boost16exception_detail8set_infoINS0_39current_exception_std_exception_wrapperISt13runtime_errorEENS_27tag_original_exception_typeEPKSt9type_infoEERKT_SB_RKNS_10error_infoIT0_T1_EE
0000000000076440 W _ZN5boost16exception_detail8set_infoINS0_39current_exception_std_exception_wrapperISt14overflow_errorEENS_27tag_original_exception_typeEPKSt9type_infoEERKT_SB_RKNS_10error_infoIT0_T1_EE
000000000007657d W _ZN5boost16exception_detail8set_infoINS0_39current_exception_std_exception_wrapperISt15underflow_errorEENS_27tag_original_exception_typeEPKSt9type_infoEERKT_SB_RKNS_10error_infoIT0_T1_EE
0000000000075e0f W _ZN5boost16exception_detail8set_infoINS0_39current_exception_std_exception_wrapperISt16invalid_argumentEENS_27tag_original_exception_typeEPKSt9type_infoEERKT_SB_RKNS_10error_infoIT0_T1_EE
0000000000076a71 W _ZN5boost16exception_detail8set_infoINS0_39current_exception_std_exception_wrapperISt8bad_castEENS_27tag_original_exception_typeEPKSt9type_infoEERKT_SB_RKNS_10error_infoIT0_T1_EE
0000000000076934 W _ZN5boost16exception_detail8set_infoINS0_39current_exception_std_exception_wrapperISt9bad_allocEENS_27tag_original_exception_typeEPKSt9type_infoEERKT_SB_RKNS_10error_infoIT0_T1_EE
000000000006f568 W _ZN5boost16exception_detail8set_infoINS_17unknown_exceptionENS_27tag_original_exception_typeEPKSt9type_infoEERKT_S9_RKNS_10error_infoIT0_T1_EE
0000000000060485 W _ZN5boost16exception_detailltERKNS0_10type_info_ES3_
000000000006332a W _ZN5boost16thread_cv_detail12lock_on_exitINS_11unique_lockINS_5mutexEEEE8activateERS4_
00000000000632ea W _ZN5boost16thread_cv_detail12lock_on_exitINS_11unique_lockINS_5mutexEEEEC1Ev
00000000000632ea W _ZN5boost16thread_cv_detail12lock_on_exitINS_11unique_lockINS_5mutexEEEEC2Ev
0000000000063300 W _ZN5boost16thread_cv_detail12lock_on_exitINS_11unique_lockINS_5mutexEEEED1Ev
0000000000063300 W _ZN5boost16thread_cv_detail12lock_on_exitINS_11unique_lockINS_5mutexEEEED2Ev
000000000005f4ac W _ZN5boost16thread_exceptionC1EiPKc
0000000000062b92 W _ZN5boost16thread_exceptionC1ERKS0_
000000000005f4ac W _ZN5boost16thread_exceptionC2EiPKc
0000000000062b92 W _ZN5boost16thread_exceptionC2ERKS0_
000000000005f546 W _ZN5boost16thread_exceptionD0Ev
000000000005f504 W _ZN5boost16thread_exceptionD1Ev
000000000005f504 W _ZN5boost16thread_exceptionD2Ev
000000000006c7ea W _ZN5boost17bad_function_callC1ERKS0_
0000000000061ad6 W _ZN5boost17bad_function_callC1Ev
000000000006c7ea W _ZN5boost17bad_function_callC2ERKS0_
0000000000061ad6 W _ZN5boost17bad_function_callC2Ev
000000000006562c W _ZN5boost17bad_function_callD0Ev
00000000000655ea W _ZN5boost17bad_function_callD1Ev
00000000000655ea W _ZN5boost17bad_function_callD2Ev
00000000000618ed W _ZN5boost17current_exceptionEv
00000000000676d7 W _ZN5boost17enable_error_infoINS_10lock_errorEEENS_16exception_detail29enable_error_info_return_typeIT_E4typeERKS4_
000000000006cd59 W _ZN5boost17enable_error_infoINS_13promise_movedEEENS_16exception_detail29enable_error_info_return_typeIT_E4typeERKS4_
0000000000067db9 W _ZN5boost17enable_error_infoINS_15condition_errorEEENS_16exception_detail29enable_error_info_return_typeIT_E4typeERKS4_
0000000000070fbc W _ZN5boost17enable_error_infoINS_17bad_function_callEEENS_16exception_detail29enable_error_info_return_typeIT_E4typeERKS4_
0000000000071f28 W _ZN5boost17enable_error_infoINS_20future_uninitializedEEENS_16exception_detail29enable_error_info_return_typeIT_E4typeERKS4_
0000000000067514 W _ZN5boost17enable_error_infoINS_21thread_resource_errorEEENS_16exception_detail29enable_error_info_return_typeIT_E4typeERKS4_
000000000006cf1b W _ZN5boost17enable_error_infoINS_24future_already_retrievedEEENS_16exception_detail29enable_error_info_return_typeIT_E4typeERKS4_
000000000006ca11 W _ZN5boost17enable_error_infoINS_25promise_already_satisfiedEEENS_16exception_detail29enable_error_info_return_typeIT_E4typeERKS4_
0000000000061a17 W _ZN5boost17rethrow_exceptionERKNS_13exception_ptrE
0000000000063c4e W _ZN5boost17unknown_exception17add_original_typeINS_9exceptionEEEvRKT_
0000000000063bd8 W _ZN5boost17unknown_exception17add_original_typeISt9exceptionEEvRKT_
0000000000060f54 W _ZN5boost17unknown_exceptionC1ERKNS_9exceptionE
0000000000063cc4 W _ZN5boost17unknown_exceptionC1ERKS0_
0000000000060e4e W _ZN5boost17unknown_exceptionC1ERKSt9exception
0000000000060dfe W _ZN5boost17unknown_exceptionC1Ev
0000000000060f54 W _ZN5boost17unknown_exceptionC2ERKNS_9exceptionE
0000000000063cc4 W _ZN5boost17unknown_exceptionC2ERKS0_
0000000000060e4e W _ZN5boost17unknown_exceptionC2ERKSt9exception
0000000000060dfe W _ZN5boost17unknown_exceptionC2Ev
0000000000061062 W _ZN5boost17unknown_exceptionD0Ev
0000000000060ff4 W _ZN5boost17unknown_exceptionD1Ev
0000000000060ff4 W _ZN5boost17unknown_exceptionD2Ev
00000000000601fc W _ZN5boost18condition_variable10notify_allEv
00000000000600f6 W _ZN5boost18condition_variable4waitERNS_11unique_lockINS_5mutexEEE
000000000005f9d2 W _ZN5boost18condition_variableC1Ev
000000000005f9d2 W _ZN5boost18condition_variableC2Ev
000000000005face W _ZN5boost18condition_variableD1Ev
000000000005face W _ZN5boost18condition_variableD2Ev
000000000006dcf2 W _ZN5boost20future_uninitializedC1ERKS0_
0000000000061cfc W _ZN5boost20future_uninitializedC1Ev
000000000006dcf2 W _ZN5boost20future_uninitializedC2ERKS0_
0000000000061cfc W _ZN5boost20future_uninitializedC2Ev
0000000000066c90 W _ZN5boost20future_uninitializedD0Ev
0000000000066c4e W _ZN5boost20future_uninitializedD1Ev
0000000000066c4e W _ZN5boost20future_uninitializedD2Ev
000000000005f6a0 W _ZN5boost21thread_resource_errorC1EiPKc
0000000000062bca W _ZN5boost21thread_resource_errorC1ERKS0_
000000000005f668 W _ZN5boost21thread_resource_errorC1Ev
000000000005f6a0 W _ZN5boost21thread_resource_errorC2EiPKc
0000000000062bca W _ZN5boost21thread_resource_errorC2ERKS0_
000000000005f668 W _ZN5boost21thread_resource_errorC2Ev
000000000005f71e W _ZN5boost21thread_resource_errorD0Ev
000000000005f6dc W _ZN5boost21thread_resource_errorD1Ev
000000000005f6dc W _ZN5boost21thread_resource_errorD2Ev
000000000006025c W _ZN5boost22condition_variable_any10notify_allEv
0000000000071b52 W _ZN5boost23atomic_compare_exchangeINS_6detail12shared_stateISt6vectorISsSaISsEEEEEEbPNS_10shared_ptrIT_EESA_S9_
0000000000063016 W _ZN5boost23enable_shared_from_thisINS_6detail16thread_data_baseEEC1Ev
0000000000063016 W _ZN5boost23enable_shared_from_thisINS_6detail16thread_data_baseEEC2Ev
0000000000063030 W _ZN5boost23enable_shared_from_thisINS_6detail16thread_data_baseEED1Ev
0000000000063030 W _ZN5boost23enable_shared_from_thisINS_6detail16thread_data_baseEED2Ev
0000000000065398 W _ZN5boost23enable_shared_from_thisINS_6detail17shared_state_baseEEC1Ev
0000000000065398 W _ZN5boost23enable_shared_from_thisINS_6detail17shared_state_baseEEC2Ev
00000000000653b2 W _ZN5boost23enable_shared_from_thisINS_6detail17shared_state_baseEED1Ev
00000000000653b2 W _ZN5boost23enable_shared_from_thisINS_6detail17shared_state_baseEED2Ev
000000000006cc83 W _ZN5boost24enable_current_exceptionINS_14broken_promiseEEENS_16exception_detail10clone_implIT_EERKS4_
000000000006779a W _ZN5boost24enable_current_exceptionINS_16exception_detail19error_info_injectorINS_10lock_errorEEEEENS1_10clone_implIT_EERKS6_
000000000006ce1c W _ZN5boost24enable_current_exceptionINS_16exception_detail19error_info_injectorINS_13promise_movedEEEEENS1_10clone_implIT_EERKS6_
0000000000067e7c W _ZN5boost24enable_current_exceptionINS_16exception_detail19error_info_injectorINS_15condition_errorEEEEENS1_10clone_implIT_EERKS6_
0000000000071080 W _ZN5boost24enable_current_exceptionINS_16exception_detail19error_info_injectorINS_17bad_function_callEEEEENS1_10clone_implIT_EERKS6_
0000000000071fec W _ZN5boost24enable_current_exceptionINS_16exception_detail19error_info_injectorINS_20future_uninitializedEEEEENS1_10clone_implIT_EERKS6_
00000000000675d8 W _ZN5boost24enable_current_exceptionINS_16exception_detail19error_info_injectorINS_21thread_resource_errorEEEEENS1_10clone_implIT_EERKS6_
000000000006cfde W _ZN5boost24enable_current_exceptionINS_16exception_detail19error_info_injectorINS_24future_already_retrievedEEEEENS1_10clone_implIT_EERKS6_
000000000006cad4 W _ZN5boost24enable_current_exceptionINS_16exception_detail19error_info_injectorINS_25promise_already_satisfiedEEEEENS1_10clone_implIT_EERKS6_
000000000007058f W _ZN5boost24enable_current_exceptionINS_16exception_detail39current_exception_std_exception_wrapperINSt8ios_base7failureEEEEENS1_10clone_implIT_EERKS7_
0000000000070b5f W _ZN5boost24enable_current_exceptionINS_16exception_detail39current_exception_std_exception_wrapperISt10bad_typeidEEEENS1_10clone_implIT_EERKS6_
000000000006ffbf W _ZN5boost24enable_current_exceptionINS_16exception_detail39current_exception_std_exception_wrapperISt11logic_errorEEEENS1_10clone_implIT_EERKS6_
0000000000070133 W _ZN5boost24enable_current_exceptionINS_16exception_detail39current_exception_std_exception_wrapperISt11range_errorEEEENS1_10clone_implIT_EERKS6_
000000000006f9ef W _ZN5boost24enable_current_exceptionINS_16exception_detail39current_exception_std_exception_wrapperISt12domain_errorEEEENS1_10clone_implIT_EERKS6_
000000000006fcd7 W _ZN5boost24enable_current_exceptionINS_16exception_detail39current_exception_std_exception_wrapperISt12length_errorEEEENS1_10clone_implIT_EERKS6_
000000000006fe4b W _ZN5boost24enable_current_exceptionINS_16exception_detail39current_exception_std_exception_wrapperISt12out_of_rangeEEEENS1_10clone_implIT_EERKS6_
0000000000070cd3 W _ZN5boost24enable_current_exceptionINS_16exception_detail39current_exception_std_exception_wrapperISt13bad_exceptionEEEENS1_10clone_implIT_EERKS6_
0000000000070703 W _ZN5boost24enable_current_exceptionINS_16exception_detail39current_exception_std_exception_wrapperISt13runtime_errorEEEENS1_10clone_implIT_EERKS6_
00000000000702a7 W _ZN5boost24enable_current_exceptionINS_16exception_detail39current_exception_std_exception_wrapperISt14overflow_errorEEEENS1_10clone_implIT_EERKS6_
000000000007041b W _ZN5boost24enable_current_exceptionINS_16exception_detail39current_exception_std_exception_wrapperISt15underflow_errorEEEENS1_10clone_implIT_EERKS6_
000000000006fb63 W _ZN5boost24enable_current_exceptionINS_16exception_detail39current_exception_std_exception_wrapperISt16invalid_argumentEEEENS1_10clone_implIT_EERKS6_
00000000000709eb W _ZN5boost24enable_current_exceptionINS_16exception_detail39current_exception_std_exception_wrapperISt8bad_castEEEENS1_10clone_implIT_EERKS6_
0000000000070877 W _ZN5boost24enable_current_exceptionINS_16exception_detail39current_exception_std_exception_wrapperISt9bad_allocEEEENS1_10clone_implIT_EERKS6_
00000000000684fb W _ZN5boost24enable_current_exceptionINS_17unknown_exceptionEEENS_16exception_detail10clone_implIT_EERKS4_
0000000000065de4 W _ZN5boost24future_already_retrievedC1ERKS0_
0000000000061db8 W _ZN5boost24future_already_retrievedC1Ev
0000000000065de4 W _ZN5boost24future_already_retrievedC2ERKS0_
0000000000061db8 W _ZN5boost24future_already_retrievedC2Ev
0000000000065e5e W _ZN5boost24future_already_retrievedD0Ev
0000000000065e1c W _ZN5boost24future_already_retrievedD1Ev
0000000000065e1c W _ZN5boost24future_already_retrievedD2Ev
0000000000065718 W _ZN5boost25promise_already_satisfiedC1ERKS0_
0000000000061e16 W _ZN5boost25promise_already_satisfiedC1Ev
0000000000065718 W _ZN5boost25promise_already_satisfiedC2ERKS0_
0000000000061e16 W _ZN5boost25promise_already_satisfiedC2Ev
0000000000065792 W _ZN5boost25promise_already_satisfiedD0Ev
0000000000065750 W _ZN5boost25promise_already_satisfiedD1Ev
0000000000065750 W _ZN5boost25promise_already_satisfiedD2Ev
000000000005ed08 W _ZN5boost36throw_exception_assert_compatibilityERKSt9exception
0000000000063290 W _ZN5boost3argILi1EEC1Ev
0000000000063290 W _ZN5boost3argILi1EEC2Ev
000000000006329a W _ZN5boost3argILi2EEC1Ev
000000000006329a W _ZN5boost3argILi2EEC2Ev
00000000000632a4 W _ZN5boost3argILi3EEC1Ev
00000000000632a4 W _ZN5boost3argILi3EEC2Ev
00000000000632ae W _ZN5boost3argILi4EEC1Ev
00000000000632ae W _ZN5boost3argILi4EEC2Ev
00000000000632b8 W _ZN5boost3argILi5EEC1Ev
00000000000632b8 W _ZN5boost3argILi5EEC2Ev
00000000000632c2 W _ZN5boost3argILi6EEC1Ev
00000000000632c2 W _ZN5boost3argILi6EEC2Ev
00000000000632cc W _ZN5boost3argILi7EEC1Ev
00000000000632cc W _ZN5boost3argILi7EEC2Ev
00000000000632d6 W _ZN5boost3argILi8EEC1Ev
00000000000632d6 W _ZN5boost3argILi8EEC2Ev
00000000000632e0 W _ZN5boost3argILi9EEC1Ev
00000000000632e0 W _ZN5boost3argILi9EEC2Ev
000000000006004a W _ZN5boost3_bi5list0C1Ev
000000000006004a W _ZN5boost3_bi5list0C2Ev
0000000000062972 W _ZN5boost3_bi5list7INS0_5valueIP6ZisckyEENS2_ISt6vectorISsSaISsEEEES9_S9_NS2_ISsEENS2_IbEENS_17reference_wrapperINS_7promiseIS8_EEEEEC1ERKSG_
000000000006e33a W _ZN5boost3_bi5list7INS0_5valueIP6ZisckyEENS2_ISt6vectorISsSaISsEEEES9_S9_NS2_ISsEENS2_IbEENS_17reference_wrapperINS_7promiseIS8_EEEEEC1ES5_S9_S9_S9_SA_SB_SF_
0000000000062972 W _ZN5boost3_bi5list7INS0_5valueIP6ZisckyEENS2_ISt6vectorISsSaISsEEEES9_S9_NS2_ISsEENS2_IbEENS_17reference_wrapperINS_7promiseIS8_EEEEEC2ERKSG_
000000000006e33a W _ZN5boost3_bi5list7INS0_5valueIP6ZisckyEENS2_ISt6vectorISsSaISsEEEES9_S9_NS2_ISsEENS2_IbEENS_17reference_wrapperINS_7promiseIS8_EEEEEC2ES5_S9_S9_S9_SA_SB_SF_
000000000007b96c W _ZN5boost3_bi5list7INS0_5valueIP6ZisckyEENS2_ISt6vectorISsSaISsEEEES9_S9_NS2_ISsEENS2_IbEENS_17reference_wrapperINS_7promiseIS8_EEEEEclINS_4_mfi3mf6IS8_S3_S8_S8_S8_SsbRSE_EENS0_5list0EEEvNS0_4typeIvEERT_RT0_i
000000000007b72c W _ZN5boost3_bi5list7INS0_5valueIP6ZisckyEENS2_ISt6vectorISsSaISsEEEES9_S9_NS2_ISsEENS2_IbEENS_17reference_wrapperINS_7promiseIS8_EEEEEclIS8_NS_4_mfi3mf6IS8_S3_S8_S8_S8_SsbRSE_EENS0_5list0EEET_NS0_4typeISN_EERT0_RT1_l
0000000000062722 W _ZN5boost3_bi5list7INS0_5valueIP6ZisckyEENS2_ISt6vectorISsSaISsEEEES9_S9_NS2_ISsEENS2_IbEENS_17reference_wrapperINS_7promiseIS8_EEEEED1Ev
0000000000062722 W _ZN5boost3_bi5list7INS0_5valueIP6ZisckyEENS2_ISt6vectorISsSaISsEEEES9_S9_NS2_ISsEENS2_IbEENS_17reference_wrapperINS_7promiseIS8_EEEEED2Ev
000000000007c298 W _ZN5boost3_bi5valueIbE3getEv
000000000006e31e W _ZN5boost3_bi5valueIbEC1ERKb
000000000006e31e W _ZN5boost3_bi5valueIbEC2ERKb
000000000007c26e W _ZN5boost3_bi5valueIP6ZisckyE3getEv
000000000006e2b6 W _ZN5boost3_bi5valueIP6ZisckyEC1ERKS3_
000000000006e2b6 W _ZN5boost3_bi5valueIP6ZisckyEC2ERKS3_
000000000007c28a W _ZN5boost3_bi5valueISsE3getEv
0000000000062880 W _ZN5boost3_bi5valueISsEC1ERKS2_
000000000006e2f8 W _ZN5boost3_bi5valueISsEC1ERKSs
0000000000062880 W _ZN5boost3_bi5valueISsEC2ERKS2_
000000000006e2f8 W _ZN5boost3_bi5valueISsEC2ERKSs
0000000000062688 W _ZN5boost3_bi5valueISsED1Ev
0000000000062688 W _ZN5boost3_bi5valueISsED2Ev
000000000007c27c W _ZN5boost3_bi5valueISt6vectorISsSaISsEEE3getEv
000000000006e2d2 W _ZN5boost3_bi5valueISt6vectorISsSaISsEEEC1ERKS4_
000000000006275a W _ZN5boost3_bi5valueISt6vectorISsSaISsEEEC1ERKS5_
000000000006e2d2 W _ZN5boost3_bi5valueISt6vectorISsSaISsEEEC2ERKS4_
000000000006275a W _ZN5boost3_bi5valueISt6vectorISsSaISsEEEC2ERKS5_
00000000000625b8 W _ZN5boost3_bi5valueISt6vectorISsSaISsEEED1Ev
00000000000625b8 W _ZN5boost3_bi5valueISt6vectorISsSaISsEEED2Ev
0000000000062998 W _ZN5boost3_bi6bind_tISt6vectorISsSaISsEENS_4_mfi3mf6IS4_6ZisckyS4_S4_S4_SsbRNS_7promiseIS4_EEEENS0_5list7INS0_5valueIPS7_EENSD_IS4_EESG_SG_NSD_ISsEENSD_IbEENS_17reference_wrapperIS9_EEEEEC1ERKSM_
000000000006e488 W _ZN5boost3_bi6bind_tISt6vectorISsSaISsEENS_4_mfi3mf6IS4_6ZisckyS4_S4_S4_SsbRNS_7promiseIS4_EEEENS0_5list7INS0_5valueIPS7_EENSD_IS4_EESG_SG_NSD_ISsEENSD_IbEENS_17reference_wrapperIS9_EEEEEC1ESB_RKSL_
0000000000062998 W _ZN5boost3_bi6bind_tISt6vectorISsSaISsEENS_4_mfi3mf6IS4_6ZisckyS4_S4_S4_SsbRNS_7promiseIS4_EEEENS0_5list7INS0_5valueIPS7_EENSD_IS4_EESG_SG_NSD_ISsEENSD_IbEENS_17reference_wrapperIS9_EEEEEC2ERKSM_
000000000006e488 W _ZN5boost3_bi6bind_tISt6vectorISsSaISsEENS_4_mfi3mf6IS4_6ZisckyS4_S4_S4_SsbRNS_7promiseIS4_EEEENS0_5list7INS0_5valueIPS7_EENSD_IS4_EESG_SG_NSD_ISsEENSD_IbEENS_17reference_wrapperIS9_EEEEEC2ESB_RKSL_
000000000007a232 W _ZN5boost3_bi6bind_tISt6vectorISsSaISsEENS_4_mfi3mf6IS4_6ZisckyS4_S4_S4_SsbRNS_7promiseIS4_EEEENS0_5list7INS0_5valueIPS7_EENSD_IS4_EESG_SG_NSD_ISsEENSD_IbEENS_17reference_wrapperIS9_EEEEEclEv
000000000006273c W _ZN5boost3_bi6bind_tISt6vectorISsSaISsEENS_4_mfi3mf6IS4_6ZisckyS4_S4_S4_SsbRNS_7promiseIS4_EEEENS0_5list7INS0_5valueIPS7_EENSD_IS4_EESG_SG_NSD_ISsEENSD_IbEENS_17reference_wrapperIS9_EEEEED1Ev
000000000006273c W _ZN5boost3_bi6bind_tISt6vectorISsSaISsEENS_4_mfi3mf6IS4_6ZisckyS4_S4_S4_SsbRNS_7promiseIS4_EEEENS0_5list7INS0_5valueIPS7_EENSD_IS4_EESG_SG_NSD_ISsEENSD_IbEENS_17reference_wrapperIS9_EEEEED2Ev
000000000006685a W _ZN5boost3_bi6bind_tIvNS_4_mfi3mf6ISt6vectorISsSaISsEE6ZisckyS6_S6_S6_SsbRNS_7promiseIS6_EEEENS0_5list7INS0_5valueIPS7_EENSD_IS6_EESG_SG_NSD_ISsEENSD_IbEENS_17reference_wrapperIS9_EEEEEC1ERKSM_
0000000000071d52 W _ZN5boost3_bi6bind_tIvNS_4_mfi3mf6ISt6vectorISsSaISsEE6ZisckyS6_S6_S6_SsbRNS_7promiseIS6_EEEENS0_5list7INS0_5valueIPS7_EENSD_IS6_EESG_SG_NSD_ISsEENSD_IbEENS_17reference_wrapperIS9_EEEEEC1ESB_RKSL_
000000000006685a W _ZN5boost3_bi6bind_tIvNS_4_mfi3mf6ISt6vectorISsSaISsEE6ZisckyS6_S6_S6_SsbRNS_7promiseIS6_EEEENS0_5list7INS0_5valueIPS7_EENSD_IS6_EESG_SG_NSD_ISsEENSD_IbEENS_17reference_wrapperIS9_EEEEEC2ERKSM_
0000000000071d52 W _ZN5boost3_bi6bind_tIvNS_4_mfi3mf6ISt6vectorISsSaISsEE6ZisckyS6_S6_S6_SsbRNS_7promiseIS6_EEEENS0_5list7INS0_5valueIPS7_EENSD_IS6_EESG_SG_NSD_ISsEENSD_IbEENS_17reference_wrapperIS9_EEEEEC2ESB_RKSL_
000000000007a280 W _ZN5boost3_bi6bind_tIvNS_4_mfi3mf6ISt6vectorISsSaISsEE6ZisckyS6_S6_S6_SsbRNS_7promiseIS6_EEEENS0_5list7INS0_5valueIPS7_EENSD_IS6_EESG_SG_NSD_ISsEENSD_IbEENS_17reference_wrapperIS9_EEEEEclEv
000000000006683c W _ZN5boost3_bi6bind_tIvNS_4_mfi3mf6ISt6vectorISsSaISsEE6ZisckyS6_S6_S6_SsbRNS_7promiseIS6_EEEENS0_5list7INS0_5valueIPS7_EENSD_IS6_EESG_SG_NSD_ISsEENSD_IbEENS_17reference_wrapperIS9_EEEEED1Ev
000000000006683c W _ZN5boost3_bi6bind_tIvNS_4_mfi3mf6ISt6vectorISsSaISsEE6ZisckyS6_S6_S6_SsbRNS_7promiseIS6_EEEENS0_5list7INS0_5valueIPS7_EENSD_IS6_EESG_SG_NSD_ISsEENSD_IbEENS_17reference_wrapperIS9_EEEEED2Ev
0000000000078618 W _ZN5boost3_bi8storage1INS0_5valueIP6ZisckyEEEC1ES5_
0000000000078618 W _ZN5boost3_bi8storage1INS0_5valueIP6ZisckyEEEC2ES5_
0000000000062780 W _ZN5boost3_bi8storage2INS0_5valueIP6ZisckyEENS2_ISt6vectorISsSaISsEEEEEC1ERKSA_
00000000000785d8 W _ZN5boost3_bi8storage2INS0_5valueIP6ZisckyEENS2_ISt6vectorISsSaISsEEEEEC1ES5_S9_
0000000000062780 W _ZN5boost3_bi8storage2INS0_5valueIP6ZisckyEENS2_ISt6vectorISsSaISsEEEEEC2ERKSA_
00000000000785d8 W _ZN5boost3_bi8storage2INS0_5valueIP6ZisckyEENS2_ISt6vectorISsSaISsEEEEEC2ES5_S9_
00000000000625d2 W _ZN5boost3_bi8storage2INS0_5valueIP6ZisckyEENS2_ISt6vectorISsSaISsEEEEED1Ev
00000000000625d2 W _ZN5boost3_bi8storage2INS0_5valueIP6ZisckyEENS2_ISt6vectorISsSaISsEEEEED2Ev
00000000000627bc W _ZN5boost3_bi8storage3INS0_5valueIP6ZisckyEENS2_ISt6vectorISsSaISsEEEES9_EC1ERKSA_
0000000000078506 W _ZN5boost3_bi8storage3INS0_5valueIP6ZisckyEENS2_ISt6vectorISsSaISsEEEES9_EC1ES5_S9_S9_
00000000000627bc W _ZN5boost3_bi8storage3INS0_5valueIP6ZisckyEENS2_ISt6vectorISsSaISsEEEES9_EC2ERKSA_
0000000000078506 W _ZN5boost3_bi8storage3INS0_5valueIP6ZisckyEENS2_ISt6vectorISsSaISsEEEES9_EC2ES5_S9_S9_
00000000000625f0 W _ZN5boost3_bi8storage3INS0_5valueIP6ZisckyEENS2_ISt6vectorISsSaISsEEEES9_ED1Ev
00000000000625f0 W _ZN5boost3_bi8storage3INS0_5valueIP6ZisckyEENS2_ISt6vectorISsSaISsEEEES9_ED2Ev
000000000006281e W _ZN5boost3_bi8storage4INS0_5valueIP6ZisckyEENS2_ISt6vectorISsSaISsEEEES9_S9_EC1ERKSA_
0000000000077fe2 W _ZN5boost3_bi8storage4INS0_5valueIP6ZisckyEENS2_ISt6vectorISsSaISsEEEES9_S9_EC1ES5_S9_S9_S9_
000000000006281e W _ZN5boost3_bi8storage4INS0_5valueIP6ZisckyEENS2_ISt6vectorISsSaISsEEEES9_S9_EC2ERKSA_
0000000000077fe2 W _ZN5boost3_bi8storage4INS0_5valueIP6ZisckyEENS2_ISt6vectorISsSaISsEEEES9_S9_EC2ES5_S9_S9_S9_
000000000006263c W _ZN5boost3_bi8storage4INS0_5valueIP6ZisckyEENS2_ISt6vectorISsSaISsEEEES9_S9_ED1Ev
000000000006263c W _ZN5boost3_bi8storage4INS0_5valueIP6ZisckyEENS2_ISt6vectorISsSaISsEEEES9_S9_ED2Ev
00000000000628a6 W _ZN5boost3_bi8storage5INS0_5valueIP6ZisckyEENS2_ISt6vectorISsSaISsEEEES9_S9_NS2_ISsEEEC1ERKSB_
0000000000077672 W _ZN5boost3_bi8storage5INS0_5valueIP6ZisckyEENS2_ISt6vectorISsSaISsEEEES9_S9_NS2_ISsEEEC1ES5_S9_S9_S9_SA_
00000000000628a6 W _ZN5boost3_bi8storage5INS0_5valueIP6ZisckyEENS2_ISt6vectorISsSaISsEEEES9_S9_NS2_ISsEEEC2ERKSB_
0000000000077672 W _ZN5boost3_bi8storage5INS0_5valueIP6ZisckyEENS2_ISt6vectorISsSaISsEEEES9_S9_NS2_ISsEEEC2ES5_S9_S9_S9_SA_
00000000000626a2 W _ZN5boost3_bi8storage5INS0_5valueIP6ZisckyEENS2_ISt6vectorISsSaISsEEEES9_S9_NS2_ISsEEED1Ev
00000000000626a2 W _ZN5boost3_bi8storage5INS0_5valueIP6ZisckyEENS2_ISt6vectorISsSaISsEEEES9_S9_NS2_ISsEEED2Ev
0000000000062908 W _ZN5boost3_bi8storage6INS0_5valueIP6ZisckyEENS2_ISt6vectorISsSaISsEEEES9_S9_NS2_ISsEENS2_IbEEEC1ERKSC_
0000000000075370 W _ZN5boost3_bi8storage6INS0_5valueIP6ZisckyEENS2_ISt6vectorISsSaISsEEEES9_S9_NS2_ISsEENS2_IbEEEC1ES5_S9_S9_S9_SA_SB_
0000000000062908 W _ZN5boost3_bi8storage6INS0_5valueIP6ZisckyEENS2_ISt6vectorISsSaISsEEEES9_S9_NS2_ISsEENS2_IbEEEC2ERKSC_
0000000000075370 W _ZN5boost3_bi8storage6INS0_5valueIP6ZisckyEENS2_ISt6vectorISsSaISsEEEES9_S9_NS2_ISsEENS2_IbEEEC2ES5_S9_S9_S9_SA_SB_
00000000000626ee W _ZN5boost3_bi8storage6INS0_5valueIP6ZisckyEENS2_ISt6vectorISsSaISsEEEES9_S9_NS2_ISsEENS2_IbEEED1Ev
00000000000626ee W _ZN5boost3_bi8storage6INS0_5valueIP6ZisckyEENS2_ISt6vectorISsSaISsEEEES9_S9_NS2_ISsEENS2_IbEEED2Ev
000000000006293c W _ZN5boost3_bi8storage7INS0_5valueIP6ZisckyEENS2_ISt6vectorISsSaISsEEEES9_S9_NS2_ISsEENS2_IbEENS_17reference_wrapperINS_7promiseIS8_EEEEEC1ERKSG_
00000000000726ca W _ZN5boost3_bi8storage7INS0_5valueIP6ZisckyEENS2_ISt6vectorISsSaISsEEEES9_S9_NS2_ISsEENS2_IbEENS_17reference_wrapperINS_7promiseIS8_EEEEEC1ES5_S9_S9_S9_SA_SB_SF_
000000000006293c W _ZN5boost3_bi8storage7INS0_5valueIP6ZisckyEENS2_ISt6vectorISsSaISsEEEES9_S9_NS2_ISsEENS2_IbEENS_17reference_wrapperINS_7promiseIS8_EEEEEC2ERKSG_
00000000000726ca W _ZN5boost3_bi8storage7INS0_5valueIP6ZisckyEENS2_ISt6vectorISsSaISsEEEES9_S9_NS2_ISsEENS2_IbEENS_17reference_wrapperINS_7promiseIS8_EEEEEC2ES5_S9_S9_S9_SA_SB_SF_
0000000000062708 W _ZN5boost3_bi8storage7INS0_5valueIP6ZisckyEENS2_ISt6vectorISsSaISsEEEES9_S9_NS2_ISsEENS2_IbEENS_17reference_wrapperINS_7promiseIS8_EEEEED1Ev
0000000000062708 W _ZN5boost3_bi8storage7INS0_5valueIP6ZisckyEENS2_ISt6vectorISsSaISsEEEES9_S9_NS2_ISsEENS2_IbEENS_17reference_wrapperINS_7promiseIS8_EEEEED2Ev
000000000007bc8c W _ZN5boost3_bi9unwrapperINS_4_mfi3mf6ISt6vectorISsSaISsEE6ZisckyS6_S6_S6_SsbRNS_7promiseIS6_EEEEE6unwrapERSB_l
0000000000067154 W _ZN5boost4bindISt6vectorISsSaISsEE6ZisckyS3_S3_S3_SsbRNS_7promiseIS3_EEPS4_S3_S3_S3_SsbNS_17reference_wrapperIS6_EEEENS_3_bi6bind_tIT_NS_4_mfi3mf6ISD_T0_T1_T2_T3_T4_T5_T6_EENSB_9list_av_7IT7_T8_T9_T10_T11_T12_T13_E4typeEEEMSG_FSD_SH_SI_SJ_SK_SL_SM_ESP_SQ_SR_SS_ST_SU_SV_
000000000006d99c W _ZN5boost4bindIvSt6vectorISsSaISsEE6ZisckyS3_S3_S3_SsbRNS_7promiseIS3_EEPS4_S3_S3_S3_SsbNS_17reference_wrapperIS6_EEEENS_3_bi6bind_tIT_NS_4_mfi3mf6IT0_T1_T2_T3_T4_T5_T6_T7_EENSB_9list_av_7IT8_T9_T10_T11_T12_T13_T14_E4typeEEENS_4typeISD_EEMSH_FSG_SI_SJ_SK_SL_SM_SN_ESQ_SR_SS_ST_SU_SV_SW_
000000000006e288 W _ZN5boost4_mfi3mf6ISt6vectorISsSaISsEE6ZisckyS4_S4_S4_SsbRNS_7promiseIS4_EEEC1EMS5_FS4_S4_S4_S4_SsbS8_E
000000000006e288 W _ZN5boost4_mfi3mf6ISt6vectorISsSaISsEE6ZisckyS4_S4_S4_SsbRNS_7promiseIS4_EEEC2EMS5_FS4_S4_S4_S4_SsbS8_E
0000000000071e91 W _ZN5boost4moveINS_6detail12basic_futureISt6vectorISsSaISsEEEEEENS_9enable_ifINS_14is_convertibleIRT_NS1_13thread_move_tIS9_EEEESC_E4typeESA_
000000000007212c W _ZN5boost4moveISt6vectorISsSaISsEEEENS_11move_detail11enable_if_cIXaasrNS_29enable_move_utility_emulationIT_EE5valuentsrNS_26has_move_emulation_enabledIS7_EE5valueERS7_E4typeESB_
000000000005f8da W _ZN5boost5mutex4lockEv
000000000005f956 W _ZN5boost5mutex6unlockEv
000000000005f80a W _ZN5boost5mutexC1Ev
000000000005f80a W _ZN5boost5mutexC2Ev
000000000005f876 W _ZN5boost5mutexD1Ev
000000000005f876 W _ZN5boost5mutexD2Ev
000000000005effa W _ZN5boost6detail10weak_countaSERKNS0_12shared_countE
000000000005efba W _ZN5boost6detail10weak_countC1Ev
000000000005efba W _ZN5boost6detail10weak_countC2Ev
000000000005efd0 W _ZN5boost6detail10weak_countD1Ev
000000000005efd0 W _ZN5boost6detail10weak_countD2Ev
000000000006d0de W _ZN5boost6detail11base_futureC1Ev
000000000006d0de W _ZN5boost6detail11base_futureC2Ev
0000000000078a96 W _ZN5boost6detail11thread_dataINS_3_bi6bind_tISt6vectorISsSaISsEENS_4_mfi3mf6IS6_6ZisckyS6_S6_S6_SsbRNS_7promiseIS6_EEEENS2_5list7INS2_5valueIPS9_EENSF_IS6_EESI_SI_NSF_ISsEENSF_IbEENS_17reference_wrapperISB_EEEEEEE3runEv
00000000000777a4 W _ZN5boost6detail11thread_dataINS_3_bi6bind_tISt6vectorISsSaISsEENS_4_mfi3mf6IS6_6ZisckyS6_S6_S6_SsbRNS_7promiseIS6_EEEENS2_5list7INS2_5valueIPS9_EENSF_IS6_EESI_SI_NSF_ISsEENSF_IbEENS_17reference_wrapperISB_EEEEEEEC1ESO_
00000000000777a4 W _ZN5boost6detail11thread_dataINS_3_bi6bind_tISt6vectorISsSaISsEENS_4_mfi3mf6IS6_6ZisckyS6_S6_S6_SsbRNS_7promiseIS6_EEEENS2_5list7INS2_5valueIPS9_EENSF_IS6_EESI_SI_NSF_ISsEENSF_IbEENS_17reference_wrapperISB_EEEEEEEC2ESO_
000000000007816c W _ZN5boost6detail11thread_dataINS_3_bi6bind_tISt6vectorISsSaISsEENS_4_mfi3mf6IS6_6ZisckyS6_S6_S6_SsbRNS_7promiseIS6_EEEENS2_5list7INS2_5valueIPS9_EENSF_IS6_EESI_SI_NSF_ISsEENSF_IbEENS_17reference_wrapperISB_EEEEEEED0Ev
00000000000780f6 W _ZN5boost6detail11thread_dataINS_3_bi6bind_tISt6vectorISsSaISsEENS_4_mfi3mf6IS6_6ZisckyS6_S6_S6_SsbRNS_7promiseIS6_EEEENS2_5list7INS2_5valueIPS9_EENSF_IS6_EESI_SI_NSF_ISsEENSF_IbEENS_17reference_wrapperISB_EEEEEEED1Ev
00000000000780f6 W _ZN5boost6detail11thread_dataINS_3_bi6bind_tISt6vectorISsSaISsEENS_4_mfi3mf6IS6_6ZisckyS6_S6_S6_SsbRNS_7promiseIS6_EEEENS2_5list7INS2_5valueIPS9_EENSF_IS6_EESI_SI_NSF_ISsEENSF_IbEENS_17reference_wrapperISB_EEEEEEED2Ev
0000000000078aca W _ZN5boost6detail11thread_dataINS_3_bi6bind_tIvNS_4_mfi3mf6ISt6vectorISsSaISsEE6ZisckyS8_S8_S8_SsbRNS_7promiseIS8_EEEENS2_5list7INS2_5valueIPS9_EENSF_IS8_EESI_SI_NSF_ISsEENSF_IbEENS_17reference_wrapperISB_EEEEEEE3runEv
000000000007732a W _ZN5boost6detail11thread_dataINS_3_bi6bind_tIvNS_4_mfi3mf6ISt6vectorISsSaISsEE6ZisckyS8_S8_S8_SsbRNS_7promiseIS8_EEEENS2_5list7INS2_5valueIPS9_EENSF_IS8_EESI_SI_NSF_ISsEENSF_IbEENS_17reference_wrapperISB_EEEEEEEC1ESO_
000000000007732a W _ZN5boost6detail11thread_dataINS_3_bi6bind_tIvNS_4_mfi3mf6ISt6vectorISsSaISsEE6ZisckyS8_S8_S8_SsbRNS_7promiseIS8_EEEENS2_5list7INS2_5valueIPS9_EENSF_IS8_EESI_SI_NSF_ISsEENSF_IbEENS_17reference_wrapperISB_EEEEEEEC2ESO_
0000000000077e28 W _ZN5boost6detail11thread_dataINS_3_bi6bind_tIvNS_4_mfi3mf6ISt6vectorISsSaISsEE6ZisckyS8_S8_S8_SsbRNS_7promiseIS8_EEEENS2_5list7INS2_5valueIPS9_EENSF_IS8_EESI_SI_NSF_ISsEENSF_IbEENS_17reference_wrapperISB_EEEEEEED0Ev
0000000000077db2 W _ZN5boost6detail11thread_dataINS_3_bi6bind_tIvNS_4_mfi3mf6ISt6vectorISsSaISsEE6ZisckyS8_S8_S8_SsbRNS_7promiseIS8_EEEENS2_5list7INS2_5valueIPS9_EENSF_IS8_EESI_SI_NSF_ISsEENSF_IbEENS_17reference_wrapperISB_EEEEEEED1Ev
0000000000077db2 W _ZN5boost6detail11thread_dataINS_3_bi6bind_tIvNS_4_mfi3mf6ISt6vectorISsSaISsEE6ZisckyS8_S8_S8_SsbRNS_7promiseIS8_EEEENS2_5list7INS2_5valueIPS9_EENSF_IS8_EESI_SI_NSF_ISsEENSF_IbEENS_17reference_wrapperISB_EEEEEEED2Ev
0000000000071eb6 W _ZN5boost6detail12basic_futureISt6vectorISsSaISsEEEC1ENS0_13thread_move_tIS5_EE
0000000000071e28 W _ZN5boost6detail12basic_futureISt6vectorISsSaISsEEEC1ENS_10shared_ptrINS0_12shared_stateIS4_EEEE
0000000000071eb6 W _ZN5boost6detail12basic_futureISt6vectorISsSaISsEEEC2ENS0_13thread_move_tIS5_EE
0000000000071e28 W _ZN5boost6detail12basic_futureISt6vectorISsSaISsEEEC2ENS_10shared_ptrINS0_12shared_stateIS4_EEEE
000000000006dcc0 W _ZN5boost6detail12basic_futureISt6vectorISsSaISsEEED1Ev
000000000006dcc0 W _ZN5boost6detail12basic_futureISt6vectorISsSaISsEEED2Ev
000000000005ef66 W _ZN5boost6detail12shared_count4swapERS1_
000000000005ef2a W _ZN5boost6detail12shared_countC1ERKS1_
000000000005eeea W _ZN5boost6detail12shared_countC1Ev
000000000006f768 W _ZN5boost6detail12shared_countC1IKNS_16exception_detail10clone_baseEEEPT_
0000000000077810 W _ZN5boost6detail12shared_countC1INS0_11thread_dataINS_3_bi6bind_tISt6vectorISsSaISsEENS_4_mfi3mf6IS8_6ZisckyS8_S8_S8_SsbRNS_7promiseIS8_EEEENS4_5list7INS4_5valueIPSB_EENSH_IS8_EESK_SK_NSH_ISsEENSH_IbEENS_17reference_wrapperISD_EEEEEEEEEEPT_
0000000000077396 W _ZN5boost6detail12shared_countC1INS0_11thread_dataINS_3_bi6bind_tIvNS_4_mfi3mf6ISt6vectorISsSaISsEE6ZisckySA_SA_SA_SsbRNS_7promiseISA_EEEENS4_5list7INS4_5valueIPSB_EENSH_ISA_EESK_SK_NSH_ISsEENSH_IbEENS_17reference_wrapperISD_EEEEEEEEEEPT_
0000000000077184 W _ZN5boost6detail12shared_countC1INS0_12shared_stateISt6vectorISsSaISsEEEEEEPT_
0000000000077b88 W _ZN5boost6detail12shared_countC1INS_10error_infoINS_27tag_original_exception_typeEPKSt9type_infoEEEEPT_
00000000000734f0 W _ZN5boost6detail12shared_countC1INS_16exception_detail10clone_implINS3_10bad_alloc_EEEEEPT_
0000000000073578 W _ZN5boost6detail12shared_countC1INS_16exception_detail10clone_implINS3_14bad_exception_EEEEEPT_
000000000005ef2a W _ZN5boost6detail12shared_countC2ERKS1_
000000000005eeea W _ZN5boost6detail12shared_countC2Ev
000000000006f768 W _ZN5boost6detail12shared_countC2IKNS_16exception_detail10clone_baseEEEPT_
0000000000077810 W _ZN5boost6detail12shared_countC2INS0_11thread_dataINS_3_bi6bind_tISt6vectorISsSaISsEENS_4_mfi3mf6IS8_6ZisckyS8_S8_S8_SsbRNS_7promiseIS8_EEEENS4_5list7INS4_5valueIPSB_EENSH_IS8_EESK_SK_NSH_ISsEENSH_IbEENS_17reference_wrapperISD_EEEEEEEEEEPT_
0000000000077396 W _ZN5boost6detail12shared_countC2INS0_11thread_dataINS_3_bi6bind_tIvNS_4_mfi3mf6ISt6vectorISsSaISsEE6ZisckySA_SA_SA_SsbRNS_7promiseISA_EEEENS4_5list7INS4_5valueIPSB_EENSH_ISA_EESK_SK_NSH_ISsEENSH_IbEENS_17reference_wrapperISD_EEEEEEEEEEPT_
0000000000077184 W _ZN5boost6detail12shared_countC2INS0_12shared_stateISt6vectorISsSaISsEEEEEEPT_
0000000000077b88 W _ZN5boost6detail12shared_countC2INS_10error_infoINS_27tag_original_exception_typeEPKSt9type_infoEEEEPT_
00000000000734f0 W _ZN5boost6detail12shared_countC2INS_16exception_detail10clone_implINS3_10bad_alloc_EEEEEPT_
0000000000073578 W _ZN5boost6detail12shared_countC2INS_16exception_detail10clone_implINS3_14bad_exception_EEEEEPT_
000000000005ef00 W _ZN5boost6detail12shared_countD1Ev
000000000005ef00 W _ZN5boost6detail12shared_countD2Ev
000000000006d85e W _ZN5boost6detail12shared_stateISt6vectorISsSaISsEEE34mark_finished_with_result_internalERS4_RNS_11unique_lockINS_5mutexEEE
000000000006df04 W _ZN5boost6detail12shared_stateISt6vectorISsSaISsEEE3getEv
00000000000798ec W _ZN5boost6detail12shared_stateISt6vectorISsSaISsEEE6get_shEv
0000000000071a7e W _ZN5boost6detail12shared_stateISt6vectorISsSaISsEEEC1Ev
0000000000071a7e W _ZN5boost6detail12shared_stateISt6vectorISsSaISsEEEC2Ev
0000000000078400 W _ZN5boost6detail12shared_stateISt6vectorISsSaISsEEED0Ev
000000000007838a W _ZN5boost6detail12shared_stateISt6vectorISsSaISsEEED1Ev
000000000007838a W _ZN5boost6detail12shared_stateISt6vectorISsSaISsEEED2Ev
0000000000071c28 W _ZN5boost6detail13future_traitsISt6vectorISsSaISsEEE4initERNS_10scoped_ptrIS4_EERS4_
00000000000754c1 W _ZN5boost6detail13heap_new_implINS0_11thread_dataINS_3_bi6bind_tISt6vectorISsSaISsEENS_4_mfi3mf6IS7_6ZisckyS7_S7_S7_SsbRNS_7promiseIS7_EEEENS3_5list7INS3_5valueIPSA_EENSG_IS7_EESJ_SJ_NSG_ISsEENSG_IbEENS_17reference_wrapperISC_EEEEEEEERSP_EEPT_T0_
0000000000074d5a W _ZN5boost6detail13heap_new_implINS0_11thread_dataINS_3_bi6bind_tIvNS_4_mfi3mf6ISt6vectorISsSaISsEE6ZisckyS9_S9_S9_SsbRNS_7promiseIS9_EEEENS3_5list7INS3_5valueIPSA_EENSG_IS9_EESJ_SJ_NSG_ISsEENSG_IbEENS_17reference_wrapperISC_EEEEEEEERSP_EEPT_T0_
000000000006cbd4 W _ZN5boost6detail13spinlock_poolILi2EE11scoped_lockC1EPKv
000000000006cbd4 W _ZN5boost6detail13spinlock_poolILi2EE11scoped_lockC2EPKv
000000000006cc08 W _ZN5boost6detail13spinlock_poolILi2EE11scoped_lockD1Ev
000000000006cc08 W _ZN5boost6detail13spinlock_poolILi2EE11scoped_lockD2Ev
000000000006cc25 W _ZN5boost6detail13spinlock_poolILi2EE12spinlock_forEPKv
000000000029bdc0 u _ZN5boost6detail13spinlock_poolILi2EE5pool_E
0000000000074e80 W _ZN5boost6detail13thread_move_tINS0_12basic_futureISt6vectorISsSaISsEEEEEC1ERS6_
0000000000074e80 W _ZN5boost6detail13thread_move_tINS0_12basic_futureISt6vectorISsSaISsEEEEEC2ERS6_
0000000000074e66 W _ZN5boost6detail13thread_move_tINS_13unique_futureISt6vectorISsSaISsEEEEEC1ERS6_
0000000000074e66 W _ZN5boost6detail13thread_move_tINS_13unique_futureISt6vectorISsSaISsEEEEEC2ERS6_
0000000000072a74 W _ZN5boost6detail13tss_data_nodeD1Ev
0000000000072a74 W _ZN5boost6detail13tss_data_nodeD2Ev
000000000007f420 r _ZN5boost6detail15aligned_storageL22alignment_of_max_alignE
00000000000821f0 r _ZN5boost6detail15aligned_storageL22alignment_of_max_alignE
000000000005ee04 W _ZN5boost6detail15sp_counted_base12add_ref_copyEv
000000000005ee72 W _ZN5boost6detail15sp_counted_base12weak_add_refEv
000000000005ee90 W _ZN5boost6detail15sp_counted_base12weak_releaseEv
000000000005edd8 W _ZN5boost6detail15sp_counted_base7destroyEv
000000000005ee22 W _ZN5boost6detail15sp_counted_base7releaseEv
000000000005ed4a W _ZN5boost6detail15sp_counted_baseC1Ev
000000000005ed4a W _ZN5boost6detail15sp_counted_baseC2Ev
000000000005edb2 W _ZN5boost6detail15sp_counted_baseD0Ev
000000000005ed7c W _ZN5boost6detail15sp_counted_baseD1Ev
000000000005ed7c W _ZN5boost6detail15sp_counted_baseD2Ev
000000000005ed34 W _ZN5boost6detail16atomic_incrementEPi
000000000007f428 r _ZN5boost6detail16static_log2_implL6n_zeroE
00000000000821f8 r _ZN5boost6detail16static_log2_implL6n_zeroE
000000000007f42c r _ZN5boost6detail16static_log2_implL9initial_nE
00000000000821fc r _ZN5boost6detail16static_log2_implL9initial_nE
000000000005fd98 W _ZN5boost6detail16thread_data_base25notify_all_at_thread_exitEPNS_18condition_variableEPNS_5mutexE
000000000005fbaa W _ZN5boost6detail16thread_data_baseC1Ev
000000000005fbaa W _ZN5boost6detail16thread_data_baseC2Ev
                 U _ZN5boost6detail16thread_data_baseD2Ev
0000000000062334 W _ZN5boost6detail17shared_state_base11do_callbackERNS_11unique_lockINS_5mutexEEE
0000000000062400 W _ZN5boost6detail17shared_state_base13wait_internalERNS_11unique_lockINS_5mutexEEEb
000000000006225a W _ZN5boost6detail17shared_state_base15do_continuationERNS_11unique_lockINS_5mutexEEE
0000000000061f30 W _ZN5boost6detail17shared_state_base19launch_continuationERNS_11unique_lockINS_5mutexEEE
0000000000062268 W _ZN5boost6detail17shared_state_base22mark_finished_internalERNS_11unique_lockINS_5mutexEEE
000000000006256a W _ZN5boost6detail17shared_state_base32mark_exceptional_finish_internalERKNS_13exception_ptrERNS_11unique_lockINS_5mutexEEE
00000000000624fa W _ZN5boost6detail17shared_state_base4waitEb
00000000000625aa W _ZN5boost6detail17shared_state_base7executeERNS_11unique_lockINS_5mutexEEE
0000000000061f90 W _ZN5boost6detail17shared_state_baseC1Ev
0000000000061f90 W _ZN5boost6detail17shared_state_baseC2Ev
0000000000062234 W _ZN5boost6detail17shared_state_baseD0Ev
00000000000620f4 W _ZN5boost6detail17shared_state_baseD1Ev
00000000000620f4 W _ZN5boost6detail17shared_state_baseD2Ev
0000000000078b08 W _ZN5boost6detail17sp_counted_impl_pIKNS_16exception_detail10clone_baseEE11get_deleterERKSt9type_info
0000000000078b1c W _ZN5boost6detail17sp_counted_impl_pIKNS_16exception_detail10clone_baseEE19get_untyped_deleterEv
0000000000078aea W _ZN5boost6detail17sp_counted_impl_pIKNS_16exception_detail10clone_baseEE7disposeEv
0000000000073488 W _ZN5boost6detail17sp_counted_impl_pIKNS_16exception_detail10clone_baseEEC1EPS4_
0000000000073488 W _ZN5boost6detail17sp_counted_impl_pIKNS_16exception_detail10clone_baseEEC2EPS4_
00000000000788e4 W _ZN5boost6detail17sp_counted_impl_pIKNS_16exception_detail10clone_baseEED0Ev
00000000000788a2 W _ZN5boost6detail17sp_counted_impl_pIKNS_16exception_detail10clone_baseEED1Ev
00000000000788a2 W _ZN5boost6detail17sp_counted_impl_pIKNS_16exception_detail10clone_baseEED2Ev
000000000007896a W _ZN5boost6detail17sp_counted_impl_pINS0_11thread_dataINS_3_bi6bind_tISt6vectorISsSaISsEENS_4_mfi3mf6IS7_6ZisckyS7_S7_S7_SsbRNS_7promiseIS7_EEEENS3_5list7INS3_5valueIPSA_EENSG_IS7_EESJ_SJ_NSG_ISsEENSG_IbEENS_17reference_wrapperISC_EEEEEEEEE11get_deleterERKSt9type_info
000000000007897e W _ZN5boost6detail17sp_counted_impl_pINS0_11thread_dataINS_3_bi6bind_tISt6vectorISsSaISsEENS_4_mfi3mf6IS7_6ZisckyS7_S7_S7_SsbRNS_7promiseIS7_EEEENS3_5list7INS3_5valueIPSA_EENSG_IS7_EESJ_SJ_NSG_ISsEENSG_IbEENS_17reference_wrapperISC_EEEEEEEEE19get_untyped_deleterEv
000000000007894c W _ZN5boost6detail17sp_counted_impl_pINS0_11thread_dataINS_3_bi6bind_tISt6vectorISsSaISsEENS_4_mfi3mf6IS7_6ZisckyS7_S7_S7_SsbRNS_7promiseIS7_EEEENS3_5list7INS3_5valueIPSA_EENSG_IS7_EESJ_SJ_NSG_ISsEENSG_IbEENS_17reference_wrapperISC_EEEEEEEEE7disposeEv
00000000000780ba W _ZN5boost6detail17sp_counted_impl_pINS0_11thread_dataINS_3_bi6bind_tISt6vectorISsSaISsEENS_4_mfi3mf6IS7_6ZisckyS7_S7_S7_SsbRNS_7promiseIS7_EEEENS3_5list7INS3_5valueIPSA_EENSG_IS7_EESJ_SJ_NSG_ISsEENSG_IbEENS_17reference_wrapperISC_EEEEEEEEEC1EPSQ_
00000000000780ba W _ZN5boost6detail17sp_counted_impl_pINS0_11thread_dataINS_3_bi6bind_tISt6vectorISsSaISsEENS_4_mfi3mf6IS7_6ZisckyS7_S7_S7_SsbRNS_7promiseIS7_EEEENS3_5list7INS3_5valueIPSA_EENSG_IS7_EESJ_SJ_NSG_ISsEENSG_IbEENS_17reference_wrapperISC_EEEEEEEEEC2EPSQ_
00000000000786dc W _ZN5boost6detail17sp_counted_impl_pINS0_11thread_dataINS_3_bi6bind_tISt6vectorISsSaISsEENS_4_mfi3mf6IS7_6ZisckyS7_S7_S7_SsbRNS_7promiseIS7_EEEENS3_5list7INS3_5valueIPSA_EENSG_IS7_EESJ_SJ_NSG_ISsEENSG_IbEENS_17reference_wrapperISC_EEEEEEEEED0Ev
000000000007869a W _ZN5boost6detail17sp_counted_impl_pINS0_11thread_dataINS_3_bi6bind_tISt6vectorISsSaISsEENS_4_mfi3mf6IS7_6ZisckyS7_S7_S7_SsbRNS_7promiseIS7_EEEENS3_5list7INS3_5valueIPSA_EENSG_IS7_EESJ_SJ_NSG_ISsEENSG_IbEENS_17reference_wrapperISC_EEEEEEEEED1Ev
000000000007869a W _ZN5boost6detail17sp_counted_impl_pINS0_11thread_dataINS_3_bi6bind_tISt6vectorISsSaISsEENS_4_mfi3mf6IS7_6ZisckyS7_S7_S7_SsbRNS_7promiseIS7_EEEENS3_5list7INS3_5valueIPSA_EENSG_IS7_EESJ_SJ_NSG_ISsEENSG_IbEENS_17reference_wrapperISC_EEEEEEEEED2Ev
00000000000789ac W _ZN5boost6detail17sp_counted_impl_pINS0_11thread_dataINS_3_bi6bind_tIvNS_4_mfi3mf6ISt6vectorISsSaISsEE6ZisckyS9_S9_S9_SsbRNS_7promiseIS9_EEEENS3_5list7INS3_5valueIPSA_EENSG_IS9_EESJ_SJ_NSG_ISsEENSG_IbEENS_17reference_wrapperISC_EEEEEEEEE11get_deleterERKSt9type_info
00000000000789c0 W _ZN5boost6detail17sp_counted_impl_pINS0_11thread_dataINS_3_bi6bind_tIvNS_4_mfi3mf6ISt6vectorISsSaISsEE6ZisckyS9_S9_S9_SsbRNS_7promiseIS9_EEEENS3_5list7INS3_5valueIPSA_EENSG_IS9_EESJ_SJ_NSG_ISsEENSG_IbEENS_17reference_wrapperISC_EEEEEEEEE19get_untyped_deleterEv
000000000007898e W _ZN5boost6detail17sp_counted_impl_pINS0_11thread_dataINS_3_bi6bind_tIvNS_4_mfi3mf6ISt6vectorISsSaISsEE6ZisckyS9_S9_S9_SsbRNS_7promiseIS9_EEEENS3_5list7INS3_5valueIPSA_EENSG_IS9_EESJ_SJ_NSG_ISsEENSG_IbEENS_17reference_wrapperISC_EEEEEEEEE7disposeEv
0000000000077d76 W _ZN5boost6detail17sp_counted_impl_pINS0_11thread_dataINS_3_bi6bind_tIvNS_4_mfi3mf6ISt6vectorISsSaISsEE6ZisckyS9_S9_S9_SsbRNS_7promiseIS9_EEEENS3_5list7INS3_5valueIPSA_EENSG_IS9_EESJ_SJ_NSG_ISsEENSG_IbEENS_17reference_wrapperISC_EEEEEEEEEC1EPSQ_
0000000000077d76 W _ZN5boost6detail17sp_counted_impl_pINS0_11thread_dataINS_3_bi6bind_tIvNS_4_mfi3mf6ISt6vectorISsSaISsEE6ZisckyS9_S9_S9_SsbRNS_7promiseIS9_EEEENS3_5list7INS3_5valueIPSA_EENSG_IS9_EESJ_SJ_NSG_ISsEENSG_IbEENS_17reference_wrapperISC_EEEEEEEEEC2EPSQ_
0000000000078744 W _ZN5boost6detail17sp_counted_impl_pINS0_11thread_dataINS_3_bi6bind_tIvNS_4_mfi3mf6ISt6vectorISsSaISsEE6ZisckyS9_S9_S9_SsbRNS_7promiseIS9_EEEENS3_5list7INS3_5valueIPSA_EENSG_IS9_EESJ_SJ_NSG_ISsEENSG_IbEENS_17reference_wrapperISC_EEEEEEEEED0Ev
0000000000078702 W _ZN5boost6detail17sp_counted_impl_pINS0_11thread_dataINS_3_bi6bind_tIvNS_4_mfi3mf6ISt6vectorISsSaISsEE6ZisckyS9_S9_S9_SsbRNS_7promiseIS9_EEEENS3_5list7INS3_5valueIPSA_EENSG_IS9_EESJ_SJ_NSG_ISsEENSG_IbEENS_17reference_wrapperISC_EEEEEEEEED1Ev
0000000000078702 W _ZN5boost6detail17sp_counted_impl_pINS0_11thread_dataINS_3_bi6bind_tIvNS_4_mfi3mf6ISt6vectorISsSaISsEE6ZisckyS9_S9_S9_SsbRNS_7promiseIS9_EEEENS3_5list7INS3_5valueIPSA_EENSG_IS9_EESJ_SJ_NSG_ISsEENSG_IbEENS_17reference_wrapperISC_EEEEEEEEED2Ev
00000000000789ee W _ZN5boost6detail17sp_counted_impl_pINS0_12shared_stateISt6vectorISsSaISsEEEEE11get_deleterERKSt9type_info
0000000000078a02 W _ZN5boost6detail17sp_counted_impl_pINS0_12shared_stateISt6vectorISsSaISsEEEEE19get_untyped_deleterEv
00000000000789d0 W _ZN5boost6detail17sp_counted_impl_pINS0_12shared_stateISt6vectorISsSaISsEEEEE7disposeEv
0000000000077c90 W _ZN5boost6detail17sp_counted_impl_pINS0_12shared_stateISt6vectorISsSaISsEEEEEC1EPS6_
0000000000077c90 W _ZN5boost6detail17sp_counted_impl_pINS0_12shared_stateISt6vectorISsSaISsEEEEEC2EPS6_
00000000000787ac W _ZN5boost6detail17sp_counted_impl_pINS0_12shared_stateISt6vectorISsSaISsEEEEED0Ev
000000000007876a W _ZN5boost6detail17sp_counted_impl_pINS0_12shared_stateISt6vectorISsSaISsEEEEED1Ev
000000000007876a W _ZN5boost6detail17sp_counted_impl_pINS0_12shared_stateISt6vectorISsSaISsEEEEED2Ev
0000000000078928 W _ZN5boost6detail17sp_counted_impl_pINS_10error_infoINS_27tag_original_exception_typeEPKSt9type_infoEEE11get_deleterERS5_
000000000007893c W _ZN5boost6detail17sp_counted_impl_pINS_10error_infoINS_27tag_original_exception_typeEPKSt9type_infoEEE19get_untyped_deleterEv
000000000007890a W _ZN5boost6detail17sp_counted_impl_pINS_10error_infoINS_27tag_original_exception_typeEPKSt9type_infoEEE7disposeEv
0000000000078322 W _ZN5boost6detail17sp_counted_impl_pINS_10error_infoINS_27tag_original_exception_typeEPKSt9type_infoEEEC1EPS7_
0000000000078322 W _ZN5boost6detail17sp_counted_impl_pINS_10error_infoINS_27tag_original_exception_typeEPKSt9type_infoEEEC2EPS7_
0000000000078674 W _ZN5boost6detail17sp_counted_impl_pINS_10error_infoINS_27tag_original_exception_typeEPKSt9type_infoEEED0Ev
0000000000078632 W _ZN5boost6detail17sp_counted_impl_pINS_10error_infoINS_27tag_original_exception_typeEPKSt9type_infoEEED1Ev
0000000000078632 W _ZN5boost6detail17sp_counted_impl_pINS_10error_infoINS_27tag_original_exception_typeEPKSt9type_infoEEED2Ev
0000000000078a72 W _ZN5boost6detail17sp_counted_impl_pINS_16exception_detail10clone_implINS2_10bad_alloc_EEEE11get_deleterERKSt9type_info
0000000000078a86 W _ZN5boost6detail17sp_counted_impl_pINS_16exception_detail10clone_implINS2_10bad_alloc_EEEE19get_untyped_deleterEv
0000000000078a54 W _ZN5boost6detail17sp_counted_impl_pINS_16exception_detail10clone_implINS2_10bad_alloc_EEEE7disposeEv
0000000000075c02 W _ZN5boost6detail17sp_counted_impl_pINS_16exception_detail10clone_implINS2_10bad_alloc_EEEEC1EPS5_
0000000000075c02 W _ZN5boost6detail17sp_counted_impl_pINS_16exception_detail10clone_implINS2_10bad_alloc_EEEEC2EPS5_
000000000007887c W _ZN5boost6detail17sp_counted_impl_pINS_16exception_detail10clone_implINS2_10bad_alloc_EEEED0Ev
000000000007883a W _ZN5boost6detail17sp_counted_impl_pINS_16exception_detail10clone_implINS2_10bad_alloc_EEEED1Ev
000000000007883a W _ZN5boost6detail17sp_counted_impl_pINS_16exception_detail10clone_implINS2_10bad_alloc_EEEED2Ev
0000000000078a30 W _ZN5boost6detail17sp_counted_impl_pINS_16exception_detail10clone_implINS2_14bad_exception_EEEE11get_deleterERKSt9type_info
0000000000078a44 W _ZN5boost6detail17sp_counted_impl_pINS_16exception_detail10clone_implINS2_14bad_exception_EEEE19get_untyped_deleterEv
0000000000078a12 W _ZN5boost6detail17sp_counted_impl_pINS_16exception_detail10clone_implINS2_14bad_exception_EEEE7disposeEv
0000000000075c6a W _ZN5boost6detail17sp_counted_impl_pINS_16exception_detail10clone_implINS2_14bad_exception_EEEEC1EPS5_
0000000000075c6a W _ZN5boost6detail17sp_counted_impl_pINS_16exception_detail10clone_implINS2_14bad_exception_EEEEC2EPS5_
0000000000078814 W _ZN5boost6detail17sp_counted_impl_pINS_16exception_detail10clone_implINS2_14bad_exception_EEEED0Ev
00000000000787d2 W _ZN5boost6detail17sp_counted_impl_pINS_16exception_detail10clone_implINS2_14bad_exception_EEEED1Ev
00000000000787d2 W _ZN5boost6detail17sp_counted_impl_pINS_16exception_detail10clone_implINS2_14bad_exception_EEEED2Ev
000000000005fde0 W _ZN5boost6detail20interruption_checker22check_for_interruptionEv
000000000005fe30 W _ZN5boost6detail20interruption_checkerC1EP15pthread_mutex_tP14pthread_cond_t
000000000005fe30 W _ZN5boost6detail20interruption_checkerC2EP15pthread_mutex_tP14pthread_cond_t
000000000005ff7e W _ZN5boost6detail20interruption_checkerD1Ev
000000000005ff7e W _ZN5boost6detail20interruption_checkerD2Ev
000000000006f851 W _ZN5boost6detail20sp_pointer_constructIKNS_16exception_detail10clone_baseENS2_10clone_implINS2_10bad_alloc_EEEEEvPNS_10shared_ptrIT_EEPT0_RNS0_12shared_countE
000000000006f916 W _ZN5boost6detail20sp_pointer_constructIKNS_16exception_detail10clone_baseENS2_10clone_implINS2_14bad_exception_EEEEEvPNS_10shared_ptrIT_EEPT0_RNS0_12shared_countE
00000000000685f9 W _ZN5boost6detail20sp_pointer_constructIKNS_16exception_detail10clone_baseES4_EEvPNS_10shared_ptrIT_EEPT0_RNS0_12shared_countE
0000000000074b13 W _ZN5boost6detail20sp_pointer_constructINS0_12shared_stateISt6vectorISsSaISsEEEES6_EEvPNS_10shared_ptrIT_EEPT0_RNS0_12shared_countE
000000000007555b W _ZN5boost6detail20sp_pointer_constructINS0_16thread_data_baseENS0_11thread_dataINS_3_bi6bind_tISt6vectorISsSaISsEENS_4_mfi3mf6IS8_6ZisckyS8_S8_S8_SsbRNS_7promiseIS8_EEEENS4_5list7INS4_5valueIPSB_EENSH_IS8_EESK_SK_NSH_ISsEENSH_IbEENS_17reference_wrapperISD_EEEEEEEEEEvPNS_10shared_ptrIT_EEPT0_RNS0_12shared_countE
0000000000074df4 W _ZN5boost6detail20sp_pointer_constructINS0_16thread_data_baseENS0_11thread_dataINS_3_bi6bind_tIvNS_4_mfi3mf6ISt6vectorISsSaISsEE6ZisckySA_SA_SA_SsbRNS_7promiseISA_EEEENS4_5list7INS4_5valueIPSB_EENSH_ISA_EESK_SK_NSH_ISsEENSH_IbEENS_17reference_wrapperISD_EEEEEEEEEEvPNS_10shared_ptrIT_EEPT0_RNS0_12shared_countE
0000000000075b98 W _ZN5boost6detail20sp_pointer_constructINS_10error_infoINS_27tag_original_exception_typeEPKSt9type_infoEES7_EEvPNS_10shared_ptrIT_EEPT0_RNS0_12shared_countE
00000000000785d2 W _ZN5boost6detail21sp_assert_convertibleINS0_16thread_data_baseES2_EEvv
00000000000712c5 W _ZN5boost6detail21sp_assert_convertibleINS0_17shared_state_baseES2_EEvv
0000000000075bfc W _ZN5boost6detail21sp_assert_convertibleINS_10error_infoINS_27tag_original_exception_typeEPKSt9type_infoEENS_16exception_detail15error_info_baseEEEvv
000000000005ed12 W _ZN5boost6detail23atomic_exchange_and_addEPii
                 U _ZN5boost6detail23get_current_thread_dataEv
000000000005f165 W _ZN5boost6detail26sp_enable_shared_from_thisEz
000000000007720c W _ZN5boost6detail26sp_enable_shared_from_thisINS0_12shared_stateISt6vectorISsSaISsEEEES6_NS0_17shared_state_baseEEEvPKNS_10shared_ptrIT_EEPKT0_PKNS_23enable_shared_from_thisIT1_EE
0000000000077898 W _ZN5boost6detail26sp_enable_shared_from_thisINS0_16thread_data_baseENS0_11thread_dataINS_3_bi6bind_tISt6vectorISsSaISsEENS_4_mfi3mf6IS8_6ZisckyS8_S8_S8_SsbRNS_7promiseIS8_EEEENS4_5list7INS4_5valueIPSB_EENSH_IS8_EESK_SK_NSH_ISsEENSH_IbEENS_17reference_wrapperISD_EEEEEEEES2_EEvPKNS_10shared_ptrIT_EEPKT0_PKNS_23enable_shared_from_thisIT1_EE
000000000007741e W _ZN5boost6detail26sp_enable_shared_from_thisINS0_16thread_data_baseENS0_11thread_dataINS_3_bi6bind_tIvNS_4_mfi3mf6ISt6vectorISsSaISsEE6ZisckySA_SA_SA_SsbRNS_7promiseISA_EEEENS4_5list7INS4_5valueIPSB_EENSH_ISA_EESK_SK_NSH_ISsEENSH_IbEENS_17reference_wrapperISD_EEEEEEEES2_EEvPKNS_10shared_ptrIT_EEPKT0_PKNS_23enable_shared_from_thisIT1_EE
000000000005f092 W _ZN5boost6detail5yieldEj
000000000007281e W _ZN5boost6detail8heap_newINS0_11thread_dataINS_3_bi6bind_tISt6vectorISsSaISsEENS_4_mfi3mf6IS7_6ZisckyS7_S7_S7_SsbRNS_7promiseIS7_EEEENS3_5list7INS3_5valueIPSA_EENSG_IS7_EESJ_SJ_NSG_ISsEENSG_IbEENS_17reference_wrapperISC_EEEEEEEESP_EEPT_RT0_
0000000000071d9f W _ZN5boost6detail8heap_newINS0_11thread_dataINS_3_bi6bind_tIvNS_4_mfi3mf6ISt6vectorISsSaISsEE6ZisckyS9_S9_S9_SsbRNS_7promiseIS9_EEEENS3_5list7INS3_5valueIPSA_EENSG_IS9_EESJ_SJ_NSG_ISsEENSG_IbEENS_17reference_wrapperISC_EEEEEEEESP_EEPT_RT0_
0000000000061ed2 W _ZN5boost6detail8relockerC1ERNS_11unique_lockINS_5mutexEEE
0000000000061ed2 W _ZN5boost6detail8relockerC2ERNS_11unique_lockINS_5mutexEEE
0000000000061f06 W _ZN5boost6detail8relockerD1Ev
0000000000061f06 W _ZN5boost6detail8relockerD2Ev
000000000005f118 W _ZN5boost6detail8spinlock4lockEv
000000000005f150 W _ZN5boost6detail8spinlock6unlockEv
000000000005f0f8 W _ZN5boost6detail8spinlock8try_lockEv
000000000005ef98 W _ZN5boost6detaileqERKNS0_12shared_countES3_
0000000000061be6 W _ZN5boost6launchC1ENS0_9enum_typeE
0000000000061be6 W _ZN5boost6launchC2ENS0_9enum_typeE
000000000005f16c W _ZN5boost6system10error_codeC1EiRKNS0_14error_categoryE
000000000005f16c W _ZN5boost6system10error_codeC2EiRKNS0_14error_categoryE
000000000005f1f2 W _ZN5boost6system12system_errorC1ENS0_10error_codeEPKc
0000000000062b06 W _ZN5boost6system12system_errorC1ERKS1_
000000000005f1f2 W _ZN5boost6system12system_errorC2ENS0_10error_codeEPKc
0000000000062b06 W _ZN5boost6system12system_errorC2ERKS1_
000000000005f372 W _ZN5boost6system12system_errorD0Ev
000000000005f2e6 W _ZN5boost6system12system_errorD1Ev
000000000005f2e6 W _ZN5boost6system12system_errorD2Ev
0000000000061b9e W _ZN5boost6system15make_error_codeENS_11future_errcE
                 U _ZN5boost6system15system_categoryEv
                 U _ZN5boost6system16generic_categoryEv
000000000029bd58 b _ZN5boost6systemL10errno_ecatE
000000000029bec8 b _ZN5boost6systemL10errno_ecatE
000000000029bd60 b _ZN5boost6systemL11native_ecatE
000000000029bed0 b _ZN5boost6systemL11native_ecatE
000000000029bd50 b _ZN5boost6systemL14posix_categoryE
000000000029bec0 b _ZN5boost6systemL14posix_categoryE
0000000000060054 W _ZN5boost6thread12start_threadEv
000000000006e4d5 W _ZN5boost6thread16make_thread_infoINS_3_bi6bind_tISt6vectorISsSaISsEENS_4_mfi3mf6IS6_6ZisckyS6_S6_S6_SsbRNS_7promiseIS6_EEEENS2_5list7INS2_5valueIPS9_EENSF_IS6_EESI_SI_NSF_ISsEENSF_IbEENS_17reference_wrapperISB_EEEEEEEENS_10shared_ptrINS_6detail16thread_data_baseEEET_NS_12disable_if_cIXsrNS_7is_sameINS_5decayIST_E4typeES0_EE5valueEPNS0_5dummyEE4typeE
000000000006dbbd W _ZN5boost6thread16make_thread_infoINS_3_bi6bind_tIvNS_4_mfi3mf6ISt6vectorISsSaISsEE6ZisckyS8_S8_S8_SsbRNS_7promiseIS8_EEEENS2_5list7INS2_5valueIPS9_EENSF_IS8_EESI_SI_NSF_ISsEENSF_IbEENS_17reference_wrapperISB_EEEEEEEENS_10shared_ptrINS_6detail16thread_data_baseEEET_NS_12disable_if_cIXsrNS_7is_sameINS_5decayIST_E4typeES0_EE5valueEPNS0_5dummyEE4typeE
                 U _ZN5boost6thread21start_thread_noexceptEv
                 U _ZN5boost6thread6detachEv
000000000006689e W _ZN5boost6threadC1IM6ZisckyFSt6vectorISsSaISsEES5_S5_S5_SsbRNS_7promiseIS5_EEEPS2_S5_S5_S5_SsbNS_17reference_wrapperIS7_EEEET_T0_T1_T2_T3_T4_T5_T6_
0000000000067372 W _ZN5boost6threadC1INS_3_bi6bind_tISt6vectorISsSaISsEENS_4_mfi3mf6IS6_6ZisckyS6_S6_S6_SsbRNS_7promiseIS6_EEEENS2_5list7INS2_5valueIPS9_EENSF_IS6_EESI_SI_NSF_ISsEENSF_IbEENS_17reference_wrapperISB_EEEEEEEET_NS_12disable_if_cIXsrNS_13thread_detail14is_convertibleIRSP_NS_6detail13thread_move_tISP_EEEE5valueEPNS0_5dummyEE4typeE
000000000006689e W _ZN5boost6threadC2IM6ZisckyFSt6vectorISsSaISsEES5_S5_S5_SsbRNS_7promiseIS5_EEEPS2_S5_S5_S5_SsbNS_17reference_wrapperIS7_EEEET_T0_T1_T2_T3_T4_T5_T6_
0000000000067372 W _ZN5boost6threadC2INS_3_bi6bind_tISt6vectorISsSaISsEENS_4_mfi3mf6IS6_6ZisckyS6_S6_S6_SsbRNS_7promiseIS6_EEEENS2_5list7INS2_5valueIPS9_EENSF_IS6_EESI_SI_NSF_ISsEENSF_IbEENS_17reference_wrapperISB_EEEEEEEET_NS_12disable_if_cIXsrNS_13thread_detail14is_convertibleIRSP_NS_6detail13thread_move_tISP_EEEE5valueEPNS0_5dummyEE4typeE
00000000000600ae W _ZN5boost6threadD1Ev
00000000000600ae W _ZN5boost6threadD2Ev
0000000000066af4 W _ZN5boost7promiseISt6vectorISsSaISsEEE10get_futureEv
000000000006d71a W _ZN5boost7promiseISt6vectorISsSaISsEEE9lazy_initEv
00000000000664e6 W _ZN5boost7promiseISt6vectorISsSaISsEEE9set_valueERS3_
00000000000666d0 W _ZN5boost7promiseISt6vectorISsSaISsEEEC1Ev
00000000000666d0 W _ZN5boost7promiseISt6vectorISsSaISsEEEC2Ev
00000000000666f2 W _ZN5boost7promiseISt6vectorISsSaISsEEED1Ev
00000000000666f2 W _ZN5boost7promiseISt6vectorISsSaISsEEED2Ev
000000000005f79c W _ZN5boost7pthread25pthread_mutex_scoped_lock6unlockEv
000000000005f744 W _ZN5boost7pthread25pthread_mutex_scoped_lockC1EP15pthread_mutex_t
000000000005f744 W _ZN5boost7pthread25pthread_mutex_scoped_lockC2EP15pthread_mutex_t
000000000005f7e4 W _ZN5boost7pthread25pthread_mutex_scoped_lockD1Ev
000000000005f7e4 W _ZN5boost7pthread25pthread_mutex_scoped_lockD2Ev
00000000000655c4 W _ZN5boost8functionIFvvEEC1ERKS2_
0000000000065448 W _ZN5boost8functionIFvvEEC1Ev
00000000000655c4 W _ZN5boost8functionIFvvEEC2ERKS2_
0000000000065448 W _ZN5boost8functionIFvvEEC2Ev
0000000000061f58 W _ZN5boost8functionIFvvEED1Ev
0000000000061f58 W _ZN5boost8functionIFvvEED2Ev
00000000000784c2 W _ZN5boost8weak_ptrINS_6detail16thread_data_baseEEaSIS2_EERS3_RKNS_10shared_ptrIT_EE
000000000006789a W _ZN5boost8weak_ptrINS_6detail16thread_data_baseEEC1Ev
000000000006789a W _ZN5boost8weak_ptrINS_6detail16thread_data_baseEEC2Ev
0000000000062ff8 W _ZN5boost8weak_ptrINS_6detail16thread_data_baseEED1Ev
0000000000062ff8 W _ZN5boost8weak_ptrINS_6detail16thread_data_baseEED2Ev
0000000000076e60 W _ZN5boost8weak_ptrINS_6detail17shared_state_baseEEaSIS2_EERS3_RKNS_10shared_ptrIT_EE
000000000006c5e2 W _ZN5boost8weak_ptrINS_6detail17shared_state_baseEEC1Ev
000000000006c5e2 W _ZN5boost8weak_ptrINS_6detail17shared_state_baseEEC2Ev
000000000006537a W _ZN5boost8weak_ptrINS_6detail17shared_state_baseEED1Ev
000000000006537a W _ZN5boost8weak_ptrINS_6detail17shared_state_baseEED2Ev
000000000007f184 r _ZN5boost9container16container_detailL19piecewise_constructE
0000000000081da0 r _ZN5boost9container16container_detailL19piecewise_constructE
000000000007f183 r _ZN5boost9containerL10value_initE
0000000000081d9f r _ZN5boost9containerL10value_initE
000000000007f182 r _ZN5boost9containerL12default_initE
0000000000081d9e r _ZN5boost9containerL12default_initE
000000000007f17f r _ZN5boost9containerL13allocator_argE
0000000000081d9b r _ZN5boost9containerL13allocator_argE
000000000007f180 r _ZN5boost9containerL13ordered_rangeE
0000000000081d9c r _ZN5boost9containerL13ordered_rangeE
000000000007f408 r _ZN5boost9containerL18ADP_only_alignmentE
00000000000821d8 r _ZN5boost9containerL18ADP_only_alignmentE
000000000007f3f8 r _ZN5boost9containerL19ADP_max_free_blocksE
00000000000821c8 r _ZN5boost9containerL19ADP_max_free_blocksE
000000000007f3f0 r _ZN5boost9containerL19ADP_nodes_per_blockE
00000000000821c0 r _ZN5boost9containerL19ADP_nodes_per_blockE
000000000007f400 r _ZN5boost9containerL20ADP_overhead_percentE
00000000000821d0 r _ZN5boost9containerL20ADP_overhead_percentE
000000000007f181 r _ZN5boost9containerL20ordered_unique_rangeE
0000000000081d9d r _ZN5boost9containerL20ordered_unique_rangeE
000000000007f418 r _ZN5boost9containerL24DeepSwapAllocNMaxStorageE
00000000000821e8 r _ZN5boost9containerL24DeepSwapAllocNMaxStorageE
000000000007f410 r _ZN5boost9containerL25NodeAlloc_nodes_per_blockE
00000000000821e0 r _ZN5boost9containerL25NodeAlloc_nodes_per_blockE
0000000000060ee6 W _ZN5boost9exceptionC1ERKS0_
000000000005eacc W _ZN5boost9exceptionC1Ev
0000000000060ee6 W _ZN5boost9exceptionC2ERKS0_
000000000005eacc W _ZN5boost9exceptionC2Ev
000000000005eb7e W _ZN5boost9exceptionD0Ev
000000000005eb20 W _ZN5boost9exceptionD1Ev
000000000005eb20 W _ZN5boost9exceptionD2Ev
0000000000070f2e W _ZN5boost9function0IvE13assign_to_ownERKS1_
000000000006c736 W _ZN5boost9function0IvE5clearEv
000000000006c7ae W _ZN5boost9function0IvE5dummy7nonnullEv
000000000006c7b8 W _ZN5boost9function0IvEC1ERKS1_
000000000006c71c W _ZN5boost9function0IvEC1Ev
000000000006c7b8 W _ZN5boost9function0IvEC2ERKS1_
000000000006c71c W _ZN5boost9function0IvEC2Ev
0000000000065462 W _ZN5boost9function0IvED1Ev
0000000000065462 W _ZN5boost9function0IvED2Ev
0000000000060c4c W _ZN5boost9to_stringERKNS_10error_infoINS_27tag_original_exception_typeEPKSt9type_infoEE
000000000007c2a6 W _ZN5boost9type_nameINS_10error_infoINS_27tag_original_exception_typeEPKSt9type_infoEEEESsv
000000000007ee22 r _ZN5boostL10adopt_lockE
0000000000081d9a r _ZN5boostL10adopt_lockE
000000000007ee20 r _ZN5boostL10defer_lockE
0000000000081d98 r _ZN5boostL10defer_lockE
000000000007ee21 r _ZN5boostL11try_to_lockE
0000000000081d99 r _ZN5boostL11try_to_lockE
0000000000068836 W _ZN5boostlsINS_16exception_detail10clone_implINS1_10bad_alloc_EEENS_11throw_file_EPKcEENS_9enable_ifINS1_23derives_boost_exceptionIT_EERKSA_E4typeESD_RKNS_10error_infoIT0_T1_EE
000000000006885b W _ZN5boostlsINS_16exception_detail10clone_implINS1_10bad_alloc_EEENS_11throw_line_EiEENS_9enable_ifINS1_23derives_boost_exceptionIT_EERKS8_E4typeESB_RKNS_10error_infoIT0_T1_EE
0000000000068811 W _ZN5boostlsINS_16exception_detail10clone_implINS1_10bad_alloc_EEENS_15throw_function_EPKcEENS_9enable_ifINS1_23derives_boost_exceptionIT_EERKSA_E4typeESD_RKNS_10error_infoIT0_T1_EE
0000000000068acc W _ZN5boostlsINS_16exception_detail10clone_implINS1_14bad_exception_EEENS_11throw_file_EPKcEENS_9enable_ifINS1_23derives_boost_exceptionIT_EERKSA_E4typeESD_RKNS_10error_infoIT0_T1_EE
0000000000068af1 W _ZN5boostlsINS_16exception_detail10clone_implINS1_14bad_exception_EEENS_11throw_line_EiEENS_9enable_ifINS1_23derives_boost_exceptionIT_EERKS8_E4typeESB_RKNS_10error_infoIT0_T1_EE
0000000000068aa7 W _ZN5boostlsINS_16exception_detail10clone_implINS1_14bad_exception_EEENS_15throw_function_EPKcEENS_9enable_ifINS1_23derives_boost_exceptionIT_EERKSA_E4typeESD_RKNS_10error_infoIT0_T1_EE
0000000000073d71 W _ZN5boostlsINS_16exception_detail39current_exception_std_exception_wrapperINSt8ios_base7failureEEENS_27tag_original_exception_typeEPKSt9type_infoEENS_9enable_ifINS1_23derives_boost_exceptionIT_EERKSC_E4typeESF_RKNS_10error_infoIT0_T1_EE
0000000000074129 W _ZN5boostlsINS_16exception_detail39current_exception_std_exception_wrapperISt10bad_typeidEENS_27tag_original_exception_typeEPKSt9type_infoEENS_9enable_ifINS1_23derives_boost_exceptionIT_EERKSB_E4typeESE_RKNS_10error_infoIT0_T1_EE
00000000000739b9 W _ZN5boostlsINS_16exception_detail39current_exception_std_exception_wrapperISt11logic_errorEENS_27tag_original_exception_typeEPKSt9type_infoEENS_9enable_ifINS1_23derives_boost_exceptionIT_EERKSB_E4typeESE_RKNS_10error_infoIT0_T1_EE
0000000000073aa7 W _ZN5boostlsINS_16exception_detail39current_exception_std_exception_wrapperISt11range_errorEENS_27tag_original_exception_typeEPKSt9type_infoEENS_9enable_ifINS1_23derives_boost_exceptionIT_EERKSB_E4typeESE_RKNS_10error_infoIT0_T1_EE
0000000000073600 W _ZN5boostlsINS_16exception_detail39current_exception_std_exception_wrapperISt12domain_errorEENS_27tag_original_exception_typeEPKSt9type_infoEENS_9enable_ifINS1_23derives_boost_exceptionIT_EERKSB_E4typeESE_RKNS_10error_infoIT0_T1_EE
00000000000737dd W _ZN5boostlsINS_16exception_detail39current_exception_std_exception_wrapperISt12length_errorEENS_27tag_original_exception_typeEPKSt9type_infoEENS_9enable_ifINS1_23derives_boost_exceptionIT_EERKSB_E4typeESE_RKNS_10error_infoIT0_T1_EE
00000000000738cb W _ZN5boostlsINS_16exception_detail39current_exception_std_exception_wrapperISt12out_of_rangeEENS_27tag_original_exception_typeEPKSt9type_infoEENS_9enable_ifINS1_23derives_boost_exceptionIT_EERKSB_E4typeESE_RKNS_10error_infoIT0_T1_EE
0000000000074217 W _ZN5boostlsINS_16exception_detail39current_exception_std_exception_wrapperISt13bad_exceptionEENS_27tag_original_exception_typeEPKSt9type_infoEENS_9enable_ifINS1_23derives_boost_exceptionIT_EERKSB_E4typeESE_RKNS_10error_infoIT0_T1_EE
0000000000073e5f W _ZN5boostlsINS_16exception_detail39current_exception_std_exception_wrapperISt13runtime_errorEENS_27tag_original_exception_typeEPKSt9type_infoEENS_9enable_ifINS1_23derives_boost_exceptionIT_EERKSB_E4typeESE_RKNS_10error_infoIT0_T1_EE
0000000000073b95 W _ZN5boostlsINS_16exception_detail39current_exception_std_exception_wrapperISt14overflow_errorEENS_27tag_original_exception_typeEPKSt9type_infoEENS_9enable_ifINS1_23derives_boost_exceptionIT_EERKSB_E4typeESE_RKNS_10error_infoIT0_T1_EE
0000000000073c83 W _ZN5boostlsINS_16exception_detail39current_exception_std_exception_wrapperISt15underflow_errorEENS_27tag_original_exception_typeEPKSt9type_infoEENS_9enable_ifINS1_23derives_boost_exceptionIT_EERKSB_E4typeESE_RKNS_10error_infoIT0_T1_EE
00000000000736ef W _ZN5boostlsINS_16exception_detail39current_exception_std_exception_wrapperISt16invalid_argumentEENS_27tag_original_exception_typeEPKSt9type_infoEENS_9enable_ifINS1_23derives_boost_exceptionIT_EERKSB_E4typeESE_RKNS_10error_infoIT0_T1_EE
000000000007403b W _ZN5boostlsINS_16exception_detail39current_exception_std_exception_wrapperISt8bad_castEENS_27tag_original_exception_typeEPKSt9type_infoEENS_9enable_ifINS1_23derives_boost_exceptionIT_EERKSB_E4typeESE_RKNS_10error_infoIT0_T1_EE
0000000000073f4d W _ZN5boostlsINS_16exception_detail39current_exception_std_exception_wrapperISt9bad_allocEENS_27tag_original_exception_typeEPKSt9type_infoEENS_9enable_ifINS1_23derives_boost_exceptionIT_EERKSB_E4typeESE_RKNS_10error_infoIT0_T1_EE
00000000000684d6 W _ZN5boostlsINS_17unknown_exceptionENS_27tag_original_exception_typeEPKSt9type_infoEENS_9enable_ifINS_16exception_detail23derives_boost_exceptionIT_EERKS9_E4typeESC_RKNS_10error_infoIT0_T1_EE
000000000005d220 T _ZN6Ziscky14ParallelSearchESt6vectorISsSaISsEES2_S2_Ssb
000000000005e4b6 T _ZN6Ziscky5RegexESsSs
000000000005c3b8 T _ZN6Ziscky6SearchESt6vectorISsSaISsEES2_S2_SsbRN5boost7promiseIS2_EE
000000000005c246 T _ZN6ZisckyC1ESsSsSs
000000000005c246 T _ZN6ZisckyC2ESsSsSs
000000000005c392 T _ZN6ZisckyD0Ev
000000000005c2f2 T _ZN6ZisckyD1Ev
000000000005c2f2 T _ZN6ZisckyD2Ev
0000000000075754 W _ZN9__gnu_cxx13new_allocatorIN5boost10shared_ptrINS1_6detail17shared_state_baseEEEEC1Ev
0000000000075754 W _ZN9__gnu_cxx13new_allocatorIN5boost10shared_ptrINS1_6detail17shared_state_baseEEEEC2Ev
0000000000070ebe W _ZN9__gnu_cxx13new_allocatorIPN5boost22condition_variable_anyEE7destroyEPS3_
0000000000076e32 W _ZN9__gnu_cxx13new_allocatorIPN5boost22condition_variable_anyEEC1Ev
0000000000076e32 W _ZN9__gnu_cxx13new_allocatorIPN5boost22condition_variable_anyEEC2Ev
000000000007434c W _ZN9__gnu_cxx13new_allocatorIPN5boost22condition_variable_anyEED1Ev
000000000007434c W _ZN9__gnu_cxx13new_allocatorIPN5boost22condition_variable_anyEED2Ev
000000000007213a W _ZN9__gnu_cxx13new_allocatorISsE10deallocateEPSsm
000000000006e536 W _ZN9__gnu_cxx13new_allocatorISsE7destroyEPSs
0000000000074a9a W _ZN9__gnu_cxx13new_allocatorISsE8allocateEmPKv
00000000000717ca W _ZN9__gnu_cxx13new_allocatorISsE9constructEPSsRKSs
00000000000755d6 W _ZN9__gnu_cxx13new_allocatorISsEC1ERKS1_
00000000000755cc W _ZN9__gnu_cxx13new_allocatorISsEC1Ev
00000000000755d6 W _ZN9__gnu_cxx13new_allocatorISsEC2ERKS1_
00000000000755cc W _ZN9__gnu_cxx13new_allocatorISsEC2Ev
00000000000728cc W _ZN9__gnu_cxx13new_allocatorISsED1Ev
00000000000728cc W _ZN9__gnu_cxx13new_allocatorISsED2Ev
0000000000074356 W _ZN9__gnu_cxx13new_allocatorISt10_List_nodeIPN5boost22condition_variable_anyEEE10deallocateEPS5_m
0000000000076e28 W _ZN9__gnu_cxx13new_allocatorISt10_List_nodeIPN5boost22condition_variable_anyEEEC1Ev
0000000000076e28 W _ZN9__gnu_cxx13new_allocatorISt10_List_nodeIPN5boost22condition_variable_anyEEEC2Ev
0000000000070e58 W _ZN9__gnu_cxx13new_allocatorISt10_List_nodeIPN5boost22condition_variable_anyEEED1Ev
0000000000070e58 W _ZN9__gnu_cxx13new_allocatorISt10_List_nodeIPN5boost22condition_variable_anyEEED2Ev
0000000000075862 W _ZN9__gnu_cxx13new_allocatorISt13_Rb_tree_nodeISt4pairIKN5boost16exception_detail10type_info_ENS3_10shared_ptrINS4_15error_info_baseEEEEEE10deallocateEPSB_m
00000000000782d2 W _ZN9__gnu_cxx13new_allocatorISt13_Rb_tree_nodeISt4pairIKN5boost16exception_detail10type_info_ENS3_10shared_ptrINS4_15error_info_baseEEEEEE8allocateEmPKv
0000000000075822 W _ZN9__gnu_cxx13new_allocatorISt13_Rb_tree_nodeISt4pairIKN5boost16exception_detail10type_info_ENS3_10shared_ptrINS4_15error_info_baseEEEEEEC1Ev
0000000000075822 W _ZN9__gnu_cxx13new_allocatorISt13_Rb_tree_nodeISt4pairIKN5boost16exception_detail10type_info_ENS3_10shared_ptrINS4_15error_info_baseEEEEEEC2Ev
000000000006ef54 W _ZN9__gnu_cxx13new_allocatorISt13_Rb_tree_nodeISt4pairIKN5boost16exception_detail10type_info_ENS3_10shared_ptrINS4_15error_info_baseEEEEEED1Ev
000000000006ef54 W _ZN9__gnu_cxx13new_allocatorISt13_Rb_tree_nodeISt4pairIKN5boost16exception_detail10type_info_ENS3_10shared_ptrINS4_15error_info_baseEEEEEED2Ev
0000000000075728 W _ZN9__gnu_cxx13new_allocatorISt13_Rb_tree_nodeISt4pairIKPKvN5boost6detail13tss_data_nodeEEEE10deallocateEPSA_m
00000000000756e8 W _ZN9__gnu_cxx13new_allocatorISt13_Rb_tree_nodeISt4pairIKPKvN5boost6detail13tss_data_nodeEEEEC1Ev
00000000000756e8 W _ZN9__gnu_cxx13new_allocatorISt13_Rb_tree_nodeISt4pairIKPKvN5boost6detail13tss_data_nodeEEEEC2Ev
000000000006e95e W _ZN9__gnu_cxx13new_allocatorISt13_Rb_tree_nodeISt4pairIKPKvN5boost6detail13tss_data_nodeEEEED1Ev
000000000006e95e W _ZN9__gnu_cxx13new_allocatorISt13_Rb_tree_nodeISt4pairIKPKvN5boost6detail13tss_data_nodeEEEED2Ev
00000000000756c6 W _ZN9__gnu_cxx13new_allocatorISt13_Rb_tree_nodeISt4pairIKSsSsEEE10deallocateEPS5_m
000000000007823c W _ZN9__gnu_cxx13new_allocatorISt13_Rb_tree_nodeISt4pairIKSsSsEEE8allocateEmPKv
0000000000076ebe W _ZN9__gnu_cxx13new_allocatorISt13_Rb_tree_nodeISt4pairIKSsSsEEEC1Ev
0000000000076ebe W _ZN9__gnu_cxx13new_allocatorISt13_Rb_tree_nodeISt4pairIKSsSsEEEC2Ev
000000000006e598 W _ZN9__gnu_cxx13new_allocatorISt13_Rb_tree_nodeISt4pairIKSsSsEEED1Ev
000000000006e598 W _ZN9__gnu_cxx13new_allocatorISt13_Rb_tree_nodeISt4pairIKSsSsEEED2Ev
0000000000072d82 W _ZN9__gnu_cxx13new_allocatorISt4pairIKN5boost16exception_detail10type_info_ENS2_10shared_ptrINS3_15error_info_baseEEEEE7destroyEPS9_
0000000000077b4c W _ZN9__gnu_cxx13new_allocatorISt4pairIKN5boost16exception_detail10type_info_ENS2_10shared_ptrINS3_15error_info_baseEEEEE9constructEPS9_RKS9_
0000000000077ab8 W _ZN9__gnu_cxx13new_allocatorISt4pairIKN5boost16exception_detail10type_info_ENS2_10shared_ptrINS3_15error_info_baseEEEEEC1Ev
0000000000077ab8 W _ZN9__gnu_cxx13new_allocatorISt4pairIKN5boost16exception_detail10type_info_ENS2_10shared_ptrINS3_15error_info_baseEEEEEC2Ev
0000000000075858 W _ZN9__gnu_cxx13new_allocatorISt4pairIKN5boost16exception_detail10type_info_ENS2_10shared_ptrINS3_15error_info_baseEEEEED1Ev
0000000000075858 W _ZN9__gnu_cxx13new_allocatorISt4pairIKN5boost16exception_detail10type_info_ENS2_10shared_ptrINS3_15error_info_baseEEEEED2Ev
0000000000072aac W _ZN9__gnu_cxx13new_allocatorISt4pairIKPKvN5boost6detail13tss_data_nodeEEE7destroyEPS8_
00000000000779c6 W _ZN9__gnu_cxx13new_allocatorISt4pairIKPKvN5boost6detail13tss_data_nodeEEEC1Ev
00000000000779c6 W _ZN9__gnu_cxx13new_allocatorISt4pairIKPKvN5boost6detail13tss_data_nodeEEEC2Ev
000000000007571e W _ZN9__gnu_cxx13new_allocatorISt4pairIKPKvN5boost6detail13tss_data_nodeEEED1Ev
000000000007571e W _ZN9__gnu_cxx13new_allocatorISt4pairIKPKvN5boost6detail13tss_data_nodeEEED2Ev
0000000000072974 W _ZN9__gnu_cxx13new_allocatorISt4pairIKSsSsEE7destroyEPS3_
0000000000077952 W _ZN9__gnu_cxx13new_allocatorISt4pairIKSsSsEE9constructEPS3_RKS3_
00000000000779bc W _ZN9__gnu_cxx13new_allocatorISt4pairIKSsSsEEC1Ev
00000000000779bc W _ZN9__gnu_cxx13new_allocatorISt4pairIKSsSsEEC2Ev
00000000000756bc W _ZN9__gnu_cxx13new_allocatorISt4pairIKSsSsEED1Ev
00000000000756bc W _ZN9__gnu_cxx13new_allocatorISt4pairIKSsSsEED2Ev
0000000000072b18 W _ZN9__gnu_cxx13new_allocatorISt4pairIPN5boost18condition_variableEPNS2_5mutexEEE10deallocateEPS7_m
0000000000072cbc W _ZN9__gnu_cxx13new_allocatorISt4pairIPN5boost18condition_variableEPNS2_5mutexEEE7destroyEPS7_
0000000000072c48 W _ZN9__gnu_cxx13new_allocatorISt4pairIPN5boost18condition_variableEPNS2_5mutexEEE8allocateEmPKv
000000000006eb04 W _ZN9__gnu_cxx13new_allocatorISt4pairIPN5boost18condition_variableEPNS2_5mutexEEE9constructEPS7_RKS7_
000000000007574a W _ZN9__gnu_cxx13new_allocatorISt4pairIPN5boost18condition_variableEPNS2_5mutexEEEC1Ev
000000000007574a W _ZN9__gnu_cxx13new_allocatorISt4pairIPN5boost18condition_variableEPNS2_5mutexEEEC2Ev
0000000000072b0e W _ZN9__gnu_cxx13new_allocatorISt4pairIPN5boost18condition_variableEPNS2_5mutexEEED1Ev
0000000000072b0e W _ZN9__gnu_cxx13new_allocatorISt4pairIPN5boost18condition_variableEPNS2_5mutexEEED2Ev
000000000006d8a1 W _ZN9__gnu_cxx14__alloc_traitsISaISsEE17_S_select_on_copyERKS1_
0000000000071a10 W _ZN9__gnu_cxx14__alloc_traitsISaISsEE7destroyERS1_PSs
00000000000722ad W _ZN9__gnu_cxx14__alloc_traitsISaISsEE8max_sizeERKS1_
000000000006d3ca W _ZN9__gnu_cxx14__alloc_traitsISaISsEE9constructISsEEvRS1_PSsRKT_
000000000006ed48 W _ZN9__gnu_cxx14__alloc_traitsISaISt4pairIPN5boost18condition_variableEPNS2_5mutexEEEE7destroyERS8_PS7_
00000000000757b7 W _ZN9__gnu_cxx14__alloc_traitsISaISt4pairIPN5boost18condition_variableEPNS2_5mutexEEEE8max_sizeERKS8_
0000000000067a66 W _ZN9__gnu_cxx14__alloc_traitsISaISt4pairIPN5boost18condition_variableEPNS2_5mutexEEEE9constructIS7_EEvRS8_PS7_RKT_
000000000006d1e0 W _ZN9__gnu_cxx17__normal_iteratorIPKSsSt6vectorISsSaISsEEEC1ERKS2_
000000000006610e W _ZN9__gnu_cxx17__normal_iteratorIPKSsSt6vectorISsSaISsEEEC1Ev
000000000006d1e0 W _ZN9__gnu_cxx17__normal_iteratorIPKSsSt6vectorISsSaISsEEEC2ERKS2_
000000000006610e W _ZN9__gnu_cxx17__normal_iteratorIPKSsSt6vectorISsSaISsEEEC2Ev
00000000000661c2 W _ZN9__gnu_cxx17__normal_iteratorIPKSsSt6vectorISsSaISsEEEppEi
00000000000772a4 W _ZN9__gnu_cxx17__normal_iteratorIPKSsSt6vectorISsSaISsEEEppEv
000000000006e236 W _ZN9__gnu_cxx17__normal_iteratorIPSsSt6vectorISsSaISsEEEC1ERKS1_
000000000006e236 W _ZN9__gnu_cxx17__normal_iteratorIPSsSt6vectorISsSaISsEEEC2ERKS1_
0000000000077f06 W _ZN9__gnu_cxx17__normal_iteratorIPSsSt6vectorISsSaISsEEEpLERKl
00000000000774e8 W _ZN9__gnu_cxx17__normal_iteratorIPSsSt6vectorISsSaISsEEEppEv
000000000006ed6e W _ZN9__gnu_cxx17__normal_iteratorIPSt4pairIPN5boost18condition_variableEPNS2_5mutexEESt6vectorIS7_SaIS7_EEEC1ERKS8_
000000000006ed6e W _ZN9__gnu_cxx17__normal_iteratorIPSt4pairIPN5boost18condition_variableEPNS2_5mutexEESt6vectorIS7_SaIS7_EEEC2ERKS8_
0000000000071963 W _ZN9__gnu_cxxmiIPSsSt6vectorISsSaISsEEEENS_17__normal_iteratorIT_T0_E15difference_typeERKS8_SB_
000000000006ec9b W _ZN9__gnu_cxxmiIPSt4pairIPN5boost18condition_variableEPNS2_5mutexEESt6vectorIS7_SaIS7_EEEENS_17__normal_iteratorIT_T0_E15difference_typeERKSF_SI_
0000000000066185 W _ZN9__gnu_cxxneIPKSsSt6vectorISsSaISsEEEEbRKNS_17__normal_iteratorIT_T0_EESB_
000000000007520e W _ZN9__gnu_cxxneIPSsSt6vectorISsSaISsEEEEbRKNS_17__normal_iteratorIT_T0_EESA_
000000000007ed50 W _ZNK16SwigValueWrapperISt6vectorISsSaISsEEEcvRS2_Ev
000000000005e946 W _ZNK3sql9SQLStringcvRKSsEv
000000000007a208 W _ZNK5boost10error_infoINS_27tag_original_exception_typeEPKSt9type_infoE17name_value_stringEv
0000000000063bc6 W _ZNK5boost10error_infoINS_27tag_original_exception_typeEPKSt9type_infoE5valueEv
00000000000720ec W _ZNK5boost10scoped_ptrISt6vectorISsSaISsEEEdeEv
0000000000063b90 W _ZNK5boost10shared_ptrIKNS_16exception_detail10clone_baseEE3getEv
0000000000063ba2 W _ZNK5boost10shared_ptrIKNS_16exception_detail10clone_baseEEcvMS4_PS3_Ev
000000000006525a W _ZNK5boost10shared_ptrIKNS_16exception_detail10clone_baseEEptEv
0000000000063784 W _ZNK5boost10shared_ptrINS_16exception_detail15error_info_baseEEcvMS3_PS2_Ev
0000000000063a2e W _ZNK5boost10shared_ptrINS_16exception_detail15error_info_baseEEdeEv
0000000000074b84 W _ZNK5boost10shared_ptrINS_6detail12shared_stateISt6vectorISsSaISsEEEEE15_internal_equivERKS7_
000000000006dbf6 W _ZNK5boost10shared_ptrINS_6detail12shared_stateISt6vectorISsSaISsEEEEE3getEv
000000000006d978 W _ZNK5boost10shared_ptrINS_6detail12shared_stateISt6vectorISsSaISsEEEEEcvMS7_PS6_Ev
000000000006dcda W _ZNK5boost10shared_ptrINS_6detail12shared_stateISt6vectorISsSaISsEEEEEntEv
000000000006d81e W _ZNK5boost10shared_ptrINS_6detail12shared_stateISt6vectorISsSaISsEEEEEptEv
0000000000061b78 W _ZNK5boost11future_errc21get_underlying_value_Ev
0000000000067f7c W _ZNK5boost11unique_lockINS_5mutexEE9owns_lockEv
0000000000060bee W _ZNK5boost13exception_ptrcvMNS_10shared_ptrIKNS_16exception_detail10clone_baseEEEKFPS4_vEEv
0000000000061abc W _ZNK5boost13function_base28has_trivial_copy_and_destroyEv
0000000000061aa4 W _ZNK5boost13function_base5emptyEv
0000000000079dbc W _ZNK5boost16exception_detail10clone_implINS0_10bad_alloc_EE5cloneEv
0000000000079e32 W _ZNK5boost16exception_detail10clone_implINS0_10bad_alloc_EE7rethrowEv
0000000000079ce0 W _ZNK5boost16exception_detail10clone_implINS0_14bad_exception_EE5cloneEv
0000000000079d56 W _ZNK5boost16exception_detail10clone_implINS0_14bad_exception_EE7rethrowEv
000000000007a050 W _ZNK5boost16exception_detail10clone_implINS0_19error_info_injectorINS_10lock_errorEEEE5cloneEv
000000000007a0c6 W _ZNK5boost16exception_detail10clone_implINS0_19error_info_injectorINS_10lock_errorEEEE7rethrowEv
0000000000079a4c W _ZNK5boost16exception_detail10clone_implINS0_19error_info_injectorINS_13promise_movedEEEE5cloneEv
0000000000079ac2 W _ZNK5boost16exception_detail10clone_implINS0_19error_info_injectorINS_13promise_movedEEEE7rethrowEv
0000000000079f74 W _ZNK5boost16exception_detail10clone_implINS0_19error_info_injectorINS_15condition_errorEEEE5cloneEv
0000000000079fea W _ZNK5boost16exception_detail10clone_implINS0_19error_info_injectorINS_15condition_errorEEEE7rethrowEv
0000000000078c08 W _ZNK5boost16exception_detail10clone_implINS0_19error_info_injectorINS_17bad_function_callEEEE5cloneEv
0000000000078c7e W _ZNK5boost16exception_detail10clone_implINS0_19error_info_injectorINS_17bad_function_callEEEE7rethrowEv
0000000000078b2c W _ZNK5boost16exception_detail10clone_implINS0_19error_info_injectorINS_20future_uninitializedEEEE5cloneEv
0000000000078ba2 W _ZNK5boost16exception_detail10clone_implINS0_19error_info_injectorINS_20future_uninitializedEEEE7rethrowEv
000000000007a12c W _ZNK5boost16exception_detail10clone_implINS0_19error_info_injectorINS_21thread_resource_errorEEEE5cloneEv
000000000007a1a2 W _ZNK5boost16exception_detail10clone_implINS0_19error_info_injectorINS_21thread_resource_errorEEEE7rethrowEv
0000000000079970 W _ZNK5boost16exception_detail10clone_implINS0_19error_info_injectorINS_24future_already_retrievedEEEE5cloneEv
00000000000799e6 W _ZNK5boost16exception_detail10clone_implINS0_19error_info_injectorINS_24future_already_retrievedEEEE7rethrowEv
0000000000079c04 W _ZNK5boost16exception_detail10clone_implINS0_19error_info_injectorINS_25promise_already_satisfiedEEEE5cloneEv
0000000000079c7a W _ZNK5boost16exception_detail10clone_implINS0_19error_info_injectorINS_25promise_already_satisfiedEEEE7rethrowEv
0000000000079130 W _ZNK5boost16exception_detail10clone_implINS0_39current_exception_std_exception_wrapperINSt8ios_base7failureEEEE5cloneEv
00000000000791a6 W _ZNK5boost16exception_detail10clone_implINS0_39current_exception_std_exception_wrapperINSt8ios_base7failureEEEE7rethrowEv
0000000000078dc0 W _ZNK5boost16exception_detail10clone_implINS0_39current_exception_std_exception_wrapperISt10bad_typeidEEE5cloneEv
0000000000078e36 W _ZNK5boost16exception_detail10clone_implINS0_39current_exception_std_exception_wrapperISt10bad_typeidEEE7rethrowEv
00000000000794a0 W _ZNK5boost16exception_detail10clone_implINS0_39current_exception_std_exception_wrapperISt11logic_errorEEE5cloneEv
0000000000079516 W _ZNK5boost16exception_detail10clone_implINS0_39current_exception_std_exception_wrapperISt11logic_errorEEE7rethrowEv
00000000000793c4 W _ZNK5boost16exception_detail10clone_implINS0_39current_exception_std_exception_wrapperISt11range_errorEEE5cloneEv
000000000007943a W _ZNK5boost16exception_detail10clone_implINS0_39current_exception_std_exception_wrapperISt11range_errorEEE7rethrowEv
0000000000079810 W _ZNK5boost16exception_detail10clone_implINS0_39current_exception_std_exception_wrapperISt12domain_errorEEE5cloneEv
0000000000079886 W _ZNK5boost16exception_detail10clone_implINS0_39current_exception_std_exception_wrapperISt12domain_errorEEE7rethrowEv
0000000000079658 W _ZNK5boost16exception_detail10clone_implINS0_39current_exception_std_exception_wrapperISt12length_errorEEE5cloneEv
00000000000796ce W _ZNK5boost16exception_detail10clone_implINS0_39current_exception_std_exception_wrapperISt12length_errorEEE7rethrowEv
000000000007957c W _ZNK5boost16exception_detail10clone_implINS0_39current_exception_std_exception_wrapperISt12out_of_rangeEEE5cloneEv
00000000000795f2 W _ZNK5boost16exception_detail10clone_implINS0_39current_exception_std_exception_wrapperISt12out_of_rangeEEE7rethrowEv
0000000000078ce4 W _ZNK5boost16exception_detail10clone_implINS0_39current_exception_std_exception_wrapperISt13bad_exceptionEEE5cloneEv
0000000000078d5a W _ZNK5boost16exception_detail10clone_implINS0_39current_exception_std_exception_wrapperISt13bad_exceptionEEE7rethrowEv
0000000000079054 W _ZNK5boost16exception_detail10clone_implINS0_39current_exception_std_exception_wrapperISt13runtime_errorEEE5cloneEv
00000000000790ca W _ZNK5boost16exception_detail10clone_implINS0_39current_exception_std_exception_wrapperISt13runtime_errorEEE7rethrowEv
00000000000792e8 W _ZNK5boost16exception_detail10clone_implINS0_39current_exception_std_exception_wrapperISt14overflow_errorEEE5cloneEv
000000000007935e W _ZNK5boost16exception_detail10clone_implINS0_39current_exception_std_exception_wrapperISt14overflow_errorEEE7rethrowEv
000000000007920c W _ZNK5boost16exception_detail10clone_implINS0_39current_exception_std_exception_wrapperISt15underflow_errorEEE5cloneEv
0000000000079282 W _ZNK5boost16exception_detail10clone_implINS0_39current_exception_std_exception_wrapperISt15underflow_errorEEE7rethrowEv
0000000000079734 W _ZNK5boost16exception_detail10clone_implINS0_39current_exception_std_exception_wrapperISt16invalid_argumentEEE5cloneEv
00000000000797aa W _ZNK5boost16exception_detail10clone_implINS0_39current_exception_std_exception_wrapperISt16invalid_argumentEEE7rethrowEv
0000000000078e9c W _ZNK5boost16exception_detail10clone_implINS0_39current_exception_std_exception_wrapperISt8bad_castEEE5cloneEv
0000000000078f12 W _ZNK5boost16exception_detail10clone_implINS0_39current_exception_std_exception_wrapperISt8bad_castEEE7rethrowEv
0000000000078f78 W _ZNK5boost16exception_detail10clone_implINS0_39current_exception_std_exception_wrapperISt9bad_allocEEE5cloneEv
0000000000078fee W _ZNK5boost16exception_detail10clone_implINS0_39current_exception_std_exception_wrapperISt9bad_allocEEE7rethrowEv
0000000000079b28 W _ZNK5boost16exception_detail10clone_implINS_14broken_promiseEE5cloneEv
0000000000079b9e W _ZNK5boost16exception_detail10clone_implINS_14broken_promiseEE7rethrowEv
0000000000079e98 W _ZNK5boost16exception_detail10clone_implINS_17unknown_exceptionEE5cloneEv
0000000000079f0e W _ZNK5boost16exception_detail10clone_implINS_17unknown_exceptionEE7rethrowEv
0000000000062aa8 W _ZNK5boost16exception_detail12refcount_ptrINS0_20error_info_containerEE3getEv
0000000000060850 W _ZNK5boost16exception_detail25error_info_container_impl22diagnostic_informationEPKc
0000000000060752 W _ZNK5boost16exception_detail25error_info_container_impl3getERKNS0_10type_info_E
0000000000060aa6 W _ZNK5boost16exception_detail25error_info_container_impl5cloneEv
0000000000060a30 W _ZNK5boost16exception_detail25error_info_container_impl7add_refEv
0000000000060a4c W _ZNK5boost16exception_detail25error_info_container_impl7releaseEv
00000000000781be W _ZNK5boost23enable_shared_from_thisINS_6detail16thread_data_baseEE22_internal_accept_ownerIS2_NS1_11thread_dataINS_3_bi6bind_tISt6vectorISsSaISsEENS_4_mfi3mf6ISA_6ZisckySA_SA_SA_SsbRNS_7promiseISA_EEEENS6_5list7INS6_5valueIPSD_EENSJ_ISA_EESM_SM_NSJ_ISsEENSJ_IbEENS_17reference_wrapperISF_EEEEEEEEEEvPKNS_10shared_ptrIT_EEPT0_
0000000000077e7a W _ZNK5boost23enable_shared_from_thisINS_6detail16thread_data_baseEE22_internal_accept_ownerIS2_NS1_11thread_dataINS_3_bi6bind_tIvNS_4_mfi3mf6ISt6vectorISsSaISsEE6ZisckySC_SC_SC_SsbRNS_7promiseISC_EEEENS6_5list7INS6_5valueIPSD_EENSJ_ISC_EESM_SM_NSJ_ISsEENSJ_IbEENS_17reference_wrapperISF_EEEEEEEEEEvPKNS_10shared_ptrIT_EEPT0_
0000000000077cf8 W _ZNK5boost23enable_shared_from_thisINS_6detail17shared_state_baseEE22_internal_accept_ownerINS1_12shared_stateISt6vectorISsSaISsEEEES9_EEvPKNS_10shared_ptrIT_EEPT0_
000000000007bcf8 W _ZNK5boost3_bi5list0ixIbEERT_RNS0_5valueIS3_EE
000000000007bd16 W _ZNK5boost3_bi5list0ixINS_7promiseISt6vectorISsSaISsEEEEEERT_RKNS_17reference_wrapperIS8_EE
000000000007bc9e W _ZNK5boost3_bi5list0ixIP6ZisckyEERT_RNS0_5valueIS5_EE
000000000007bcda W _ZNK5boost3_bi5list0ixISsEERT_RNS0_5valueIS3_EE
000000000007bcbc W _ZNK5boost3_bi5list0ixISt6vectorISsSaISsEEEERT_RNS0_5valueIS6_EE
000000000007bd34 W _ZNK5boost4_mfi3mf6ISt6vectorISsSaISsEE6ZisckyS4_S4_S4_SsbRNS_7promiseIS4_EEEclEPS5_S4_S4_S4_SsbS8_
000000000005f062 W _ZNK5boost6detail10weak_count9use_countEv
0000000000074e9a W _ZNK5boost6detail13thread_move_tINS0_12basic_futureISt6vectorISsSaISsEEEEEdeEv
0000000000071e80 W _ZNK5boost6detail13thread_move_tINS_13unique_futureISt6vectorISsSaISsEEEEEdeEv
000000000005eed4 W _ZNK5boost6detail15sp_counted_base9use_countEv
0000000000070ef6 W _ZNK5boost6detail8function13basic_vtable0IvE5clearERNS1_15function_bufferE
000000000005f192 W _ZNK5boost6system10error_code5valueEv
000000000005f1a2 W _ZNK5boost6system10error_code7messageEv
000000000005f398 W _ZNK5boost6system12system_error4whatEv
0000000000078462 W _ZNK5boost8weak_ptrINS_6detail16thread_data_baseEE7expiredEv
0000000000076e3c W _ZNK5boost8weak_ptrINS_6detail17shared_state_baseEE7expiredEv
000000000006c9fc W _ZNK5boost9function0IvE10get_vtableEv
0000000000065652 W _ZNK5boost9function0IvEclEv
0000000000065568 W _ZNK5boost9function0IvEcvMNS1_5dummyEFvvEEv
00000000000751fa W _ZNK9__gnu_cxx13new_allocatorISsE8max_sizeEv
00000000000785be W _ZNK9__gnu_cxx13new_allocatorISt13_Rb_tree_nodeISt4pairIKN5boost16exception_detail10type_info_ENS3_10shared_ptrINS4_15error_info_baseEEEEEE8max_sizeEv
00000000000785aa W _ZNK9__gnu_cxx13new_allocatorISt13_Rb_tree_nodeISt4pairIKSsSsEEE8max_sizeEv
00000000000757e0 W _ZNK9__gnu_cxx13new_allocatorISt4pairIPN5boost18condition_variableEPNS2_5mutexEEE8max_sizeEv
000000000006d1fc W _ZNK9__gnu_cxx17__normal_iteratorIPKSsSt6vectorISsSaISsEEE4baseEv
0000000000066200 W _ZNK9__gnu_cxx17__normal_iteratorIPKSsSt6vectorISsSaISsEEEdeEv
0000000000071834 W _ZNK9__gnu_cxx17__normal_iteratorIPSsSt6vectorISsSaISsEEE4baseEv
0000000000071888 W _ZNK9__gnu_cxx17__normal_iteratorIPSsSt6vectorISsSaISsEEEdeEv
000000000006eb46 W _ZNK9__gnu_cxx17__normal_iteratorIPSt4pairIPN5boost18condition_variableEPNS2_5mutexEESt6vectorIS7_SaIS7_EEE4baseEv
000000000006eb9a W _ZNK9__gnu_cxx17__normal_iteratorIPSt4pairIPN5boost18condition_variableEPNS2_5mutexEESt6vectorIS7_SaIS7_EEEdeEv
                 U _ZNKSs4sizeEv
                 U _ZNKSs5c_strEv
                 U _ZNKSs5emptyEv
                 U _ZNKSs7compareERKSs
                 U _ZNKSt10bad_typeid4whatEv
0000000000070e62 W _ZNKSt10_List_baseIPN5boost22condition_variable_anyESaIS2_EE19_M_get_Tp_allocatorEv
0000000000074320 W _ZNKSt10_List_baseIPN5boost22condition_variable_anyESaIS2_EE21_M_get_Node_allocatorEv
00000000000731ec W _ZNKSt10_Select1stISt4pairIKN5boost16exception_detail10type_info_ENS1_10shared_ptrINS2_15error_info_baseEEEEEclERKS8_
0000000000074932 W _ZNKSt10_Select1stISt4pairIKSsSsEEclERKS2_
                 U _ZNKSt11logic_error4whatEv
000000000006d8b0 W _ZNKSt12_Vector_baseISsSaISsEE19_M_get_Tp_allocatorEv
00000000000757d2 W _ZNKSt12_Vector_baseISt4pairIPN5boost18condition_variableEPNS1_5mutexEESaIS6_EE19_M_get_Tp_allocatorEv
                 U _ZNKSt13bad_exception4whatEv
                 U _ZNKSt13runtime_error4whatEv
0000000000068080 W _ZNKSt17_Rb_tree_iteratorISt4pairIKN5boost16exception_detail10type_info_ENS1_10shared_ptrINS2_15error_info_baseEEEEEdeEv
00000000000680da W _ZNKSt17_Rb_tree_iteratorISt4pairIKN5boost16exception_detail10type_info_ENS1_10shared_ptrINS2_15error_info_baseEEEEEeqERKS9_
000000000006d252 W _ZNKSt17_Rb_tree_iteratorISt4pairIKSsSsEEdeEv
000000000006d292 W _ZNKSt17_Rb_tree_iteratorISt4pairIKSsSsEEeqERKS3_
                 U _ZNKSt19basic_ostringstreamIcSt11char_traitsIcESaIcEE3strEv
0000000000065552 W _ZNKSt20_List_const_iteratorIPN5boost22condition_variable_anyEEdeEv
0000000000065510 W _ZNKSt20_List_const_iteratorIPN5boost22condition_variable_anyEEneERKS3_
0000000000075884 W _ZNKSt23_Rb_tree_const_iteratorISt4pairIKN5boost16exception_detail10type_info_ENS1_10shared_ptrINS2_15error_info_baseEEEEE13_M_const_castEv
000000000006f238 W _ZNKSt23_Rb_tree_const_iteratorISt4pairIKN5boost16exception_detail10type_info_ENS1_10shared_ptrINS2_15error_info_baseEEEEEeqERKS9_
00000000000639ea W _ZNKSt23_Rb_tree_const_iteratorISt4pairIKN5boost16exception_detail10type_info_ENS1_10shared_ptrINS2_15error_info_baseEEEEEneERKS9_
0000000000063a0c W _ZNKSt23_Rb_tree_const_iteratorISt4pairIKN5boost16exception_detail10type_info_ENS1_10shared_ptrINS2_15error_info_baseEEEEEptEv
0000000000076ef4 W _ZNKSt23_Rb_tree_const_iteratorISt4pairIKSsSsEE13_M_const_castEv
000000000006640e W _ZNKSt23_Rb_tree_const_iteratorISt4pairIKSsSsEEneERKS3_
0000000000066430 W _ZNKSt23_Rb_tree_const_iteratorISt4pairIKSsSsEEptEv
00000000000639d0 W _ZNKSt3mapIN5boost16exception_detail10type_info_ENS0_10shared_ptrINS1_15error_info_baseEEESt4lessIS2_ESaISt4pairIKS2_S5_EEE3endEv
00000000000639aa W _ZNKSt3mapIN5boost16exception_detail10type_info_ENS0_10shared_ptrINS1_15error_info_baseEEESt4lessIS2_ESaISt4pairIKS2_S5_EEE4findERS9_
0000000000063a98 W _ZNKSt3mapIN5boost16exception_detail10type_info_ENS0_10shared_ptrINS1_15error_info_baseEEESt4lessIS2_ESaISt4pairIKS2_S5_EEE5beginEv
000000000006805e W _ZNKSt3mapIN5boost16exception_detail10type_info_ENS0_10shared_ptrINS1_15error_info_baseEEESt4lessIS2_ESaISt4pairIKS2_S5_EEE8key_compEv
0000000000066452 W _ZNKSt3mapISsSsSt4lessISsESaISt4pairIKSsSsEEE4sizeEv
000000000006d230 W _ZNKSt3mapISsSsSt4lessISsESaISt4pairIKSsSsEEE8key_compEv
0000000000068096 W _ZNKSt4lessIN5boost16exception_detail10type_info_EEclERKS2_S5_
000000000006d268 W _ZNKSt4lessISsEclERKSsS2_
000000000007189a W _ZNKSt6vectorISsSaISsEE12_M_check_lenEmPKc
0000000000066154 W _ZNKSt6vectorISsSaISsEE3endEv
000000000006666c W _ZNKSt6vectorISsSaISsEE4sizeEv
0000000000066124 W _ZNKSt6vectorISsSaISsEE5beginEv
000000000006dfa4 W _ZNKSt6vectorISsSaISsEE8capacityEv
000000000006e17c W _ZNKSt6vectorISsSaISsEE8max_sizeEv
0000000000066692 W _ZNKSt6vectorISsSaISsEEixEm
000000000006ebac W _ZNKSt6vectorISt4pairIPN5boost18condition_variableEPNS1_5mutexEESaIS6_EE12_M_check_lenEmPKc
0000000000072bd4 W _ZNKSt6vectorISt4pairIPN5boost18condition_variableEPNS1_5mutexEESaIS6_EE4sizeEv
0000000000072bfa W _ZNKSt6vectorISt4pairIPN5boost18condition_variableEPNS1_5mutexEESaIS6_EE8max_sizeEv
                 U _ZNKSt8bad_cast4whatEv
                 U _ZNKSt8ios_base7failure4whatEv
0000000000072d26 W _ZNKSt8_Rb_treeIN5boost16exception_detail10type_info_ESt4pairIKS2_NS0_10shared_ptrINS1_15error_info_baseEEEESt10_Select1stIS8_ESt4lessIS2_ESaIS8_EE13get_allocatorEv
000000000006f17e W _ZNKSt8_Rb_treeIN5boost16exception_detail10type_info_ESt4pairIKS2_NS0_10shared_ptrINS1_15error_info_baseEEEESt10_Select1stIS8_ESt4lessIS2_ESaIS8_EE14_M_lower_boundEPKSt13_Rb_tree_nodeIS8_ESI_RS4_
000000000007582c W _ZNKSt8_Rb_treeIN5boost16exception_detail10type_info_ESt4pairIKS2_NS0_10shared_ptrINS1_15error_info_baseEEEESt10_Select1stIS8_ESt4lessIS2_ESaIS8_EE21_M_get_Node_allocatorEv
0000000000068280 W _ZNKSt8_Rb_treeIN5boost16exception_detail10type_info_ESt4pairIKS2_NS0_10shared_ptrINS1_15error_info_baseEEEESt10_Select1stIS8_ESt4lessIS2_ESaIS8_EE3endEv
00000000000681b8 W _ZNKSt8_Rb_treeIN5boost16exception_detail10type_info_ESt4pairIKS2_NS0_10shared_ptrINS1_15error_info_baseEEEESt10_Select1stIS8_ESt4lessIS2_ESaIS8_EE4findERS4_
00000000000758ac W _ZNKSt8_Rb_treeIN5boost16exception_detail10type_info_ESt4pairIKS2_NS0_10shared_ptrINS1_15error_info_baseEEEESt10_Select1stIS8_ESt4lessIS2_ESaIS8_EE4sizeEv
00000000000682b8 W _ZNKSt8_Rb_treeIN5boost16exception_detail10type_info_ESt4pairIKS2_NS0_10shared_ptrINS1_15error_info_baseEEEESt10_Select1stIS8_ESt4lessIS2_ESaIS8_EE5beginEv
000000000006f16c W _ZNKSt8_Rb_treeIN5boost16exception_detail10type_info_ESt4pairIKS2_NS0_10shared_ptrINS1_15error_info_baseEEEESt10_Select1stIS8_ESt4lessIS2_ESaIS8_EE6_M_endEv
000000000006f302 W _ZNKSt8_Rb_treeIN5boost16exception_detail10type_info_ESt4pairIKS2_NS0_10shared_ptrINS1_15error_info_baseEEEESt10_Select1stIS8_ESt4lessIS2_ESaIS8_EE7_M_rootEv
000000000006f056 W _ZNKSt8_Rb_treeIN5boost16exception_detail10type_info_ESt4pairIKS2_NS0_10shared_ptrINS1_15error_info_baseEEEESt10_Select1stIS8_ESt4lessIS2_ESaIS8_EE8key_compEv
000000000006f15a W _ZNKSt8_Rb_treeIN5boost16exception_detail10type_info_ESt4pairIKS2_NS0_10shared_ptrINS1_15error_info_baseEEEESt10_Select1stIS8_ESt4lessIS2_ESaIS8_EE8_M_beginEv
0000000000072a18 W _ZNKSt8_Rb_treeIPKvSt4pairIKS1_N5boost6detail13tss_data_nodeEESt10_Select1stIS7_ESt4lessIS1_ESaIS7_EE13get_allocatorEv
00000000000756f2 W _ZNKSt8_Rb_treeIPKvSt4pairIKS1_N5boost6detail13tss_data_nodeEESt10_Select1stIS7_ESt4lessIS1_ESaIS7_EE21_M_get_Node_allocatorEv
0000000000072918 W _ZNKSt8_Rb_treeISsSt4pairIKSsSsESt10_Select1stIS2_ESt4lessISsESaIS2_EE13get_allocatorEv
000000000006e554 W _ZNKSt8_Rb_treeISsSt4pairIKSsSsESt10_Select1stIS2_ESt4lessISsESaIS2_EE21_M_get_Node_allocatorEv
000000000006d3b8 W _ZNKSt8_Rb_treeISsSt4pairIKSsSsESt10_Select1stIS2_ESt4lessISsESaIS2_EE4sizeEv
0000000000071724 W _ZNKSt8_Rb_treeISsSt4pairIKSsSsESt10_Select1stIS2_ESt4lessISsESaIS2_EE8key_compEv
                 U _ZNKSt9bad_alloc4whatEv
                 U _ZNKSt9exception4whatEv
000000000005e954 W _ZNKSt9type_info4nameEv
000000000005e984 W _ZNKSt9type_info6beforeERKS_
000000000005e9ea W _ZNKSt9type_infoeqERKS_
                 U _ZNSaIcEC1Ev
                 U _ZNSaIcED1Ev
0000000000072b48 W _ZNSaIN5boost10shared_ptrINS_6detail17shared_state_baseEEEEC1Ev
0000000000072b48 W _ZNSaIN5boost10shared_ptrINS_6detail17shared_state_baseEEEEC2Ev
000000000007432e W _ZNSaIPN5boost22condition_variable_anyEEC1ISt10_List_nodeIS1_EEERKSaIT_E
000000000007432e W _ZNSaIPN5boost22condition_variable_anyEEC2ISt10_List_nodeIS1_EEERKSaIT_E
0000000000070e96 W _ZNSaIPN5boost22condition_variable_anyEED1Ev
0000000000070e96 W _ZNSaIPN5boost22condition_variable_anyEED2Ev
00000000000728a6 W _ZNSaISsEC1ERKS_
00000000000744be W _ZNSaISsEC1Ev
00000000000728a6 W _ZNSaISsEC2ERKS_
00000000000744be W _ZNSaISsEC2Ev
000000000006e50e W _ZNSaISsED1Ev
000000000006e50e W _ZNSaISsED2Ev
0000000000074306 W _ZNSaISt10_List_nodeIPN5boost22condition_variable_anyEEEC1Ev
0000000000074306 W _ZNSaISt10_List_nodeIPN5boost22condition_variable_anyEEEC2Ev
000000000006c654 W _ZNSaISt10_List_nodeIPN5boost22condition_variable_anyEEED1Ev
000000000006c654 W _ZNSaISt10_List_nodeIPN5boost22condition_variable_anyEEED2Ev
0000000000072cca W _ZNSaISt13_Rb_tree_nodeISt4pairIKN5boost16exception_detail10type_info_ENS1_10shared_ptrINS2_15error_info_baseEEEEEEC1Ev
0000000000072cca W _ZNSaISt13_Rb_tree_nodeISt4pairIKN5boost16exception_detail10type_info_ENS1_10shared_ptrINS2_15error_info_baseEEEEEEC2Ev
0000000000067fa8 W _ZNSaISt13_Rb_tree_nodeISt4pairIKN5boost16exception_detail10type_info_ENS1_10shared_ptrINS2_15error_info_baseEEEEEED1Ev
0000000000067fa8 W _ZNSaISt13_Rb_tree_nodeISt4pairIKN5boost16exception_detail10type_info_ENS1_10shared_ptrINS2_15error_info_baseEEEEEED2Ev
00000000000729bc W _ZNSaISt13_Rb_tree_nodeISt4pairIKPKvN5boost6detail13tss_data_nodeEEEEC1Ev
00000000000729bc W _ZNSaISt13_Rb_tree_nodeISt4pairIKPKvN5boost6detail13tss_data_nodeEEEEC2Ev
00000000000678de W _ZNSaISt13_Rb_tree_nodeISt4pairIKPKvN5boost6detail13tss_data_nodeEEEED1Ev
00000000000678de W _ZNSaISt13_Rb_tree_nodeISt4pairIKPKvN5boost6detail13tss_data_nodeEEEED2Ev
0000000000074510 W _ZNSaISt13_Rb_tree_nodeISt4pairIKSsSsEEEC1Ev
0000000000074510 W _ZNSaISt13_Rb_tree_nodeISt4pairIKSsSsEEEC2Ev
000000000006742e W _ZNSaISt13_Rb_tree_nodeISt4pairIKSsSsEEED1Ev
000000000006742e W _ZNSaISt13_Rb_tree_nodeISt4pairIKSsSsEEED2Ev
000000000007583a W _ZNSaISt4pairIKN5boost16exception_detail10type_info_ENS0_10shared_ptrINS1_15error_info_baseEEEEEC1ISt13_Rb_tree_nodeIS7_EEERKSaIT_E
000000000007583a W _ZNSaISt4pairIKN5boost16exception_detail10type_info_ENS0_10shared_ptrINS1_15error_info_baseEEEEEC2ISt13_Rb_tree_nodeIS7_EEERKSaIT_E
0000000000072d5a W _ZNSaISt4pairIKN5boost16exception_detail10type_info_ENS0_10shared_ptrINS1_15error_info_baseEEEEED1Ev
0000000000072d5a W _ZNSaISt4pairIKN5boost16exception_detail10type_info_ENS0_10shared_ptrINS1_15error_info_baseEEEEED2Ev
0000000000075700 W _ZNSaISt4pairIKPKvN5boost6detail13tss_data_nodeEEEC1ISt13_Rb_tree_nodeIS6_EEERKSaIT_E
0000000000075700 W _ZNSaISt4pairIKPKvN5boost6detail13tss_data_nodeEEEC2ISt13_Rb_tree_nodeIS6_EEERKSaIT_E
0000000000072a4c W _ZNSaISt4pairIKPKvN5boost6detail13tss_data_nodeEEED1Ev
0000000000072a4c W _ZNSaISt4pairIKPKvN5boost6detail13tss_data_nodeEEED2Ev
000000000007569e W _ZNSaISt4pairIKSsSsEEC1ISt13_Rb_tree_nodeIS1_EEERKSaIT_E
000000000007569e W _ZNSaISt4pairIKSsSsEEC2ISt13_Rb_tree_nodeIS1_EEERKSaIT_E
000000000007294c W _ZNSaISt4pairIKSsSsEED1Ev
000000000007294c W _ZNSaISt4pairIKSsSsEED2Ev
0000000000072af4 W _ZNSaISt4pairIPN5boost18condition_variableEPNS0_5mutexEEEC1Ev
0000000000072af4 W _ZNSaISt4pairIPN5boost18condition_variableEPNS0_5mutexEEEC2Ev
000000000006ea52 W _ZNSaISt4pairIPN5boost18condition_variableEPNS0_5mutexEEED1Ev
000000000006ea52 W _ZNSaISt4pairIPN5boost18condition_variableEPNS0_5mutexEEED2Ev
                 U _ZNSolsEj
                 U _ZNSolsEm
                 U _ZNSolsEPFRSt8ios_baseS0_E
                 U _ZNSs4swapERSs
                 U _ZNSs5clearEv
                 U _ZNSs6appendEPKc
                 U _ZNSs6appendEPKcm
                 U _ZNSs6appendERKSs
                 U _ZNSs6assignEPKcm
                 U _ZNSs7reserveEm
                 U _ZNSsaSEPKc
                 U _ZNSsaSERKSs
                 U _ZNSsC1EPKcRKSaIcE
                 U _ZNSsC1ERKSs
                 U _ZNSsC1Ev
                 U _ZNSsD1Ev
                 U _ZNSspLEPKc
                 U _ZNSspLERKSs
000000000006bda6 W _ZNSt10bad_typeidC1ERKS_
000000000006bda6 W _ZNSt10bad_typeidC2ERKS_
                 U _ZNSt10bad_typeidD2Ev
000000000007504d W _ZNSt10_Iter_baseIN9__gnu_cxx17__normal_iteratorIPKSsSt6vectorISsSaISsEEEELb0EE7_S_baseES7_
0000000000077452 W _ZNSt10_Iter_baseIN9__gnu_cxx17__normal_iteratorIPKSsSt6vectorISsSaISsEEEELb1EE7_S_baseES7_
0000000000077ef8 W _ZNSt10_Iter_baseIN9__gnu_cxx17__normal_iteratorIPSsSt6vectorISsSaISsEEEELb0EE7_S_baseES6_
000000000007746f W _ZNSt10_Iter_baseIN9__gnu_cxx17__normal_iteratorIPSsSt6vectorISsSaISsEEEELb1EE7_S_baseES6_
0000000000075113 W _ZNSt10_Iter_baseIPSsLb0EE7_S_baseES0_
000000000007575e W _ZNSt10_Iter_baseIPSt4pairIPN5boost18condition_variableEPNS1_5mutexEELb0EE7_S_baseES7_
0000000000070e04 W _ZNSt10_List_baseIPN5boost22condition_variable_anyESaIS2_EE10_List_implC1Ev
0000000000070e04 W _ZNSt10_List_baseIPN5boost22condition_variable_anyESaIS2_EE10_List_implC2Ev
00000000000653e6 W _ZNSt10_List_baseIPN5boost22condition_variable_anyESaIS2_EE10_List_implD1Ev
00000000000653e6 W _ZNSt10_List_baseIPN5boost22condition_variable_anyESaIS2_EE10_List_implD2Ev
0000000000070ecc W _ZNSt10_List_baseIPN5boost22condition_variable_anyESaIS2_EE11_M_put_nodeEPSt10_List_nodeIS2_E
0000000000070e36 W _ZNSt10_List_baseIPN5boost22condition_variable_anyESaIS2_EE7_M_initEv
000000000006c66e W _ZNSt10_List_baseIPN5boost22condition_variable_anyESaIS2_EE8_M_clearEv
000000000006c60c W _ZNSt10_List_baseIPN5boost22condition_variable_anyESaIS2_EEC1Ev
000000000006c60c W _ZNSt10_List_baseIPN5boost22condition_variable_anyESaIS2_EEC2Ev
0000000000065400 W _ZNSt10_List_baseIPN5boost22condition_variable_anyESaIS2_EED1Ev
0000000000065400 W _ZNSt10_List_baseIPN5boost22condition_variable_anyESaIS2_EED2Ev
000000000005e6e4 W _ZNSt11char_traitsIcE6lengthEPKc
000000000007748c W _ZNSt11__copy_moveILb0ELb0ESt26random_access_iterator_tagE8__copy_mIPKSsPSsEET0_T_S7_S6_
0000000000077508 W _ZNSt11__copy_moveILb0ELb0ESt26random_access_iterator_tagE8__copy_mIPSsS3_EET0_T_S5_S4_
0000000000060314 W _ZNSt11logic_errorC1ERKS_
0000000000060314 W _ZNSt11logic_errorC2ERKS_
                 U _ZNSt11logic_errorC2ERKSs
                 U _ZNSt11logic_errorD2Ev
000000000006a052 W _ZNSt11range_errorC1ERKS_
000000000006a052 W _ZNSt11range_errorC2ERKS_
                 U _ZNSt11range_errorD2Ev
00000000000750c0 W _ZNSt12_Destroy_auxILb0EE9__destroyIN9__gnu_cxx17__normal_iteratorIPSsSt6vectorISsSaISsEEEEEEvT_S9_
00000000000744d8 W _ZNSt12_Destroy_auxILb0EE9__destroyIPSsEEvT_S3_
0000000000072b3a W _ZNSt12_Destroy_auxILb1EE9__destroyIPSt4pairIPN5boost18condition_variableEPNS3_5mutexEEEEvT_SA_
0000000000068be2 W _ZNSt12domain_errorC1ERKS_
0000000000068be2 W _ZNSt12domain_errorC2ERKS_
                 U _ZNSt12domain_errorD2Ev
00000000000603c0 W _ZNSt12length_errorC1ERKS_
00000000000603c0 W _ZNSt12length_errorC2ERKS_
                 U _ZNSt12length_errorD2Ev
0000000000060388 W _ZNSt12out_of_rangeC1ERKS_
0000000000060388 W _ZNSt12out_of_rangeC2ERKS_
                 U _ZNSt12out_of_rangeD2Ev
000000000006eac6 W _ZNSt12_Vector_baseIN5boost10shared_ptrINS0_6detail17shared_state_baseEEESaIS4_EE12_Vector_implC1Ev
000000000006eac6 W _ZNSt12_Vector_baseIN5boost10shared_ptrINS0_6detail17shared_state_baseEEESaIS4_EE12_Vector_implC2Ev
0000000000067a4c W _ZNSt12_Vector_baseIN5boost10shared_ptrINS0_6detail17shared_state_baseEEESaIS4_EEC1Ev
0000000000067a4c W _ZNSt12_Vector_baseIN5boost10shared_ptrINS0_6detail17shared_state_baseEEESaIS4_EEC2Ev
00000000000719a6 W _ZNSt12_Vector_baseISsSaISsEE11_M_allocateEm
0000000000071c88 W _ZNSt12_Vector_baseISsSaISsEE12_Vector_implC1ERKS0_
00000000000715f2 W _ZNSt12_Vector_baseISsSaISsEE12_Vector_implC1Ev
0000000000071c88 W _ZNSt12_Vector_baseISsSaISsEE12_Vector_implC2ERKS0_
00000000000715f2 W _ZNSt12_Vector_baseISsSaISsEE12_Vector_implC2Ev
000000000006d0e8 W _ZNSt12_Vector_baseISsSaISsEE12_Vector_implD1Ev
000000000006d0e8 W _ZNSt12_Vector_baseISsSaISsEE12_Vector_implD2Ev
000000000006e062 W _ZNSt12_Vector_baseISsSaISsEE13_M_deallocateEPSsm
0000000000071cd0 W _ZNSt12_Vector_baseISsSaISsEE17_M_create_storageEm
000000000006d18e W _ZNSt12_Vector_baseISsSaISsEE19_M_get_Tp_allocatorEv
000000000006d8be W _ZNSt12_Vector_baseISsSaISsEEC1EmRKS0_
000000000006d102 W _ZNSt12_Vector_baseISsSaISsEEC1Ev
000000000006d8be W _ZNSt12_Vector_baseISsSaISsEEC2EmRKS0_
000000000006d102 W _ZNSt12_Vector_baseISsSaISsEEC2Ev
000000000006d11c W _ZNSt12_Vector_baseISsSaISsEED1Ev
000000000006d11c W _ZNSt12_Vector_baseISsSaISsEED2Ev
000000000006ecde W _ZNSt12_Vector_baseISt4pairIPN5boost18condition_variableEPNS1_5mutexEESaIS6_EE11_M_allocateEm
000000000006ea14 W _ZNSt12_Vector_baseISt4pairIPN5boost18condition_variableEPNS1_5mutexEESaIS6_EE12_Vector_implC1Ev
000000000006ea14 W _ZNSt12_Vector_baseISt4pairIPN5boost18condition_variableEPNS1_5mutexEESaIS6_EE12_Vector_implC2Ev
000000000006796e W _ZNSt12_Vector_baseISt4pairIPN5boost18condition_variableEPNS1_5mutexEESaIS6_EE12_Vector_implD1Ev
000000000006796e W _ZNSt12_Vector_baseISt4pairIPN5boost18condition_variableEPNS1_5mutexEESaIS6_EE12_Vector_implD2Ev
000000000006ea6c W _ZNSt12_Vector_baseISt4pairIPN5boost18condition_variableEPNS1_5mutexEESaIS6_EE13_M_deallocateEPS6_m
0000000000067a14 W _ZNSt12_Vector_baseISt4pairIPN5boost18condition_variableEPNS1_5mutexEESaIS6_EE19_M_get_Tp_allocatorEv
0000000000067988 W _ZNSt12_Vector_baseISt4pairIPN5boost18condition_variableEPNS1_5mutexEESaIS6_EEC1Ev
0000000000067988 W _ZNSt12_Vector_baseISt4pairIPN5boost18condition_variableEPNS1_5mutexEESaIS6_EEC2Ev
00000000000679a2 W _ZNSt12_Vector_baseISt4pairIPN5boost18condition_variableEPNS1_5mutexEESaIS6_EED1Ev
00000000000679a2 W _ZNSt12_Vector_baseISt4pairIPN5boost18condition_variableEPNS1_5mutexEESaIS6_EED2Ev
00000000000642f8 W _ZNSt13bad_exceptionC1ERKS_
000000000005e66c W _ZNSt13bad_exceptionC1Ev
00000000000642f8 W _ZNSt13bad_exceptionC2ERKS_
000000000005e66c W _ZNSt13bad_exceptionC2Ev
                 U _ZNSt13bad_exceptionD2Ev
00000000000603f8 W _ZNSt13runtime_errorC1ERKS_
00000000000603f8 W _ZNSt13runtime_errorC2ERKS_
                 U _ZNSt13runtime_errorC2ERKSs
                 U _ZNSt13runtime_errorD2Ev
000000000006c794 W _ZNSt14_List_iteratorIPN5boost22condition_variable_anyEEC1EPNSt8__detail15_List_node_baseE
000000000006c794 W _ZNSt14_List_iteratorIPN5boost22condition_variable_anyEEC2EPNSt8__detail15_List_node_baseE
000000000006a48a W _ZNSt14overflow_errorC1ERKS_
000000000006a48a W _ZNSt14overflow_errorC2ERKS_
                 U _ZNSt14overflow_errorD2Ev
000000000006a8c2 W _ZNSt15underflow_errorC1ERKS_
000000000006a8c2 W _ZNSt15underflow_errorC2ERKS_
                 U _ZNSt15underflow_errorD2Ev
000000000006901a W _ZNSt16invalid_argumentC1ERKS_
000000000006901a W _ZNSt16invalid_argumentC2ERKS_
                 U _ZNSt16invalid_argumentD2Ev
0000000000072e58 W _ZNSt17_Rb_tree_iteratorISt4pairIKN5boost16exception_detail10type_info_ENS1_10shared_ptrINS2_15error_info_baseEEEEEC1EPSt13_Rb_tree_nodeIS8_E
0000000000072e58 W _ZNSt17_Rb_tree_iteratorISt4pairIKN5boost16exception_detail10type_info_ENS1_10shared_ptrINS2_15error_info_baseEEEEEC2EPSt13_Rb_tree_nodeIS8_E
0000000000075a7c W _ZNSt17_Rb_tree_iteratorISt4pairIKN5boost16exception_detail10type_info_ENS1_10shared_ptrINS2_15error_info_baseEEEEEmmEv
0000000000075aa4 W _ZNSt17_Rb_tree_iteratorISt4pairIKN5boost16exception_detail10type_info_ENS1_10shared_ptrINS2_15error_info_baseEEEEEppEv
00000000000717b0 W _ZNSt17_Rb_tree_iteratorISt4pairIKSsSsEEC1EPSt13_Rb_tree_nodeIS2_E
00000000000717b0 W _ZNSt17_Rb_tree_iteratorISt4pairIKSsSsEEC2EPSt13_Rb_tree_nodeIS2_E
00000000000770d6 W _ZNSt17_Rb_tree_iteratorISt4pairIKSsSsEEmmEv
00000000000770fe W _ZNSt17_Rb_tree_iteratorISt4pairIKSsSsEEppEv
000000000005e879 W _ZNSt18_Rb_tree_node_base10_S_maximumEPS_
000000000005e850 W _ZNSt18_Rb_tree_node_base10_S_minimumEPS_
                 U _ZNSt19basic_ostringstreamIcSt11char_traitsIcESaIcEEC1ESt13_Ios_Openmode
                 U _ZNSt19basic_ostringstreamIcSt11char_traitsIcESaIcEED1Ev
0000000000077c34 W _ZNSt20__copy_move_backwardILb0ELb0ESt26random_access_iterator_tagE13__copy_move_bIPSsS3_EET0_T_S5_S4_
00000000000779d0 W _ZNSt20__copy_move_backwardILb0ELb0ESt26random_access_iterator_tagE13__copy_move_bIPSt4pairIPN5boost18condition_variableEPNS4_5mutexEESA_EET0_T_SC_SB_
00000000000654f4 W _ZNSt20_List_const_iteratorIPN5boost22condition_variable_anyEEC1ERKSt14_List_iteratorIS2_E
00000000000654f4 W _ZNSt20_List_const_iteratorIPN5boost22condition_variable_anyEEC2ERKSt14_List_iteratorIS2_E
0000000000065532 W _ZNSt20_List_const_iteratorIPN5boost22condition_variable_anyEEppEv
0000000000074cad W _ZNSt20__uninitialized_copyILb0EE13__uninit_copyIN9__gnu_cxx17__normal_iteratorIPKSsSt6vectorISsSaISsEEEEPSsEET0_T_SC_SB_
0000000000077f34 W _ZNSt20__uninitialized_copyILb0EE13__uninit_copyIN9__gnu_cxx17__normal_iteratorIPSsSt6vectorISsSaISsEEEES4_EET0_T_SA_S9_
000000000007516c W _ZNSt20__uninitialized_copyILb0EE13__uninit_copyIPSsS2_EET0_T_S4_S3_
0000000000077a2a W _ZNSt20__uninitialized_copyILb0EE13__uninit_copyIPSt4pairIPN5boost18condition_variableEPNS3_5mutexEES9_EET0_T_SB_SA_
000000000006f25a W _ZNSt23_Rb_tree_const_iteratorISt4pairIKN5boost16exception_detail10type_info_ENS1_10shared_ptrINS2_15error_info_baseEEEEEC1EPKSt13_Rb_tree_nodeIS8_E
000000000006f08a W _ZNSt23_Rb_tree_const_iteratorISt4pairIKN5boost16exception_detail10type_info_ENS1_10shared_ptrINS2_15error_info_baseEEEEEC1ERKSt17_Rb_tree_iteratorIS8_E
000000000006f25a W _ZNSt23_Rb_tree_const_iteratorISt4pairIKN5boost16exception_detail10type_info_ENS1_10shared_ptrINS2_15error_info_baseEEEEEC2EPKSt13_Rb_tree_nodeIS8_E
000000000006f08a W _ZNSt23_Rb_tree_const_iteratorISt4pairIKN5boost16exception_detail10type_info_ENS1_10shared_ptrINS2_15error_info_baseEEEEEC2ERKSt17_Rb_tree_iteratorIS8_E
0000000000063ab2 W _ZNSt23_Rb_tree_const_iteratorISt4pairIKN5boost16exception_detail10type_info_ENS1_10shared_ptrINS2_15error_info_baseEEEEEppEv
00000000000663d8 W _ZNSt23_Rb_tree_const_iteratorISt4pairIKSsSsEEC1ERKSt17_Rb_tree_iteratorIS2_E
00000000000660f8 W _ZNSt23_Rb_tree_const_iteratorISt4pairIKSsSsEEC1Ev
00000000000663d8 W _ZNSt23_Rb_tree_const_iteratorISt4pairIKSsSsEEC2ERKSt17_Rb_tree_iteratorIS2_E
00000000000660f8 W _ZNSt23_Rb_tree_const_iteratorISt4pairIKSsSsEEC2Ev
0000000000068038 W _ZNSt3mapIN5boost16exception_detail10type_info_ENS0_10shared_ptrINS1_15error_info_baseEEESt4lessIS2_ESaISt4pairIKS2_S5_EEE11lower_boundERS9_
00000000000680c0 W _ZNSt3mapIN5boost16exception_detail10type_info_ENS0_10shared_ptrINS1_15error_info_baseEEESt4lessIS2_ESaISt4pairIKS2_S5_EEE3endEv
0000000000068138 W _ZNSt3mapIN5boost16exception_detail10type_info_ENS0_10shared_ptrINS1_15error_info_baseEEESt4lessIS2_ESaISt4pairIKS2_S5_EEE6insertESt17_Rb_tree_iteratorISA_ERKSA_
0000000000063b10 W _ZNSt3mapIN5boost16exception_detail10type_info_ENS0_10shared_ptrINS1_15error_info_baseEEESt4lessIS2_ESaISt4pairIKS2_S5_EEEaSERKSC_
00000000000636f6 W _ZNSt3mapIN5boost16exception_detail10type_info_ENS0_10shared_ptrINS1_15error_info_baseEEESt4lessIS2_ESaISt4pairIKS2_S5_EEEC1Ev
00000000000636f6 W _ZNSt3mapIN5boost16exception_detail10type_info_ENS0_10shared_ptrINS1_15error_info_baseEEESt4lessIS2_ESaISt4pairIKS2_S5_EEEC2Ev
0000000000060534 W _ZNSt3mapIN5boost16exception_detail10type_info_ENS0_10shared_ptrINS1_15error_info_baseEEESt4lessIS2_ESaISt4pairIKS2_S5_EEED1Ev
0000000000060534 W _ZNSt3mapIN5boost16exception_detail10type_info_ENS0_10shared_ptrINS1_15error_info_baseEEESt4lessIS2_ESaISt4pairIKS2_S5_EEED2Ev
00000000000637c6 W _ZNSt3mapIN5boost16exception_detail10type_info_ENS0_10shared_ptrINS1_15error_info_baseEEESt4lessIS2_ESaISt4pairIKS2_S5_EEEixERS9_
0000000000063074 W _ZNSt3mapIPKvN5boost6detail13tss_data_nodeESt4lessIS1_ESaISt4pairIKS1_S4_EEEC1Ev
0000000000063074 W _ZNSt3mapIPKvN5boost6detail13tss_data_nodeESt4lessIS1_ESaISt4pairIKS1_S4_EEEC2Ev
000000000005fb90 W _ZNSt3mapIPKvN5boost6detail13tss_data_nodeESt4lessIS1_ESaISt4pairIKS1_S4_EEED1Ev
000000000005fb90 W _ZNSt3mapIPKvN5boost6detail13tss_data_nodeESt4lessIS1_ESaISt4pairIKS1_S4_EEED2Ev
000000000006d20a W _ZNSt3mapISsSsSt4lessISsESaISt4pairIKSsSsEEE11lower_boundERS3_
00000000000663f4 W _ZNSt3mapISsSsSt4lessISsESaISt4pairIKSsSsEEE3endEv
00000000000663be W _ZNSt3mapISsSsSt4lessISsESaISt4pairIKSsSsEEE5beginEv
000000000006d316 W _ZNSt3mapISsSsSt4lessISsESaISt4pairIKSsSsEEE6insertESt17_Rb_tree_iteratorIS4_ERKS4_
00000000000660de W _ZNSt3mapISsSsSt4lessISsESaISt4pairIKSsSsEEEC1Ev
00000000000660de W _ZNSt3mapISsSsSt4lessISsESaISt4pairIKSsSsEEEC2Ev
000000000005ea4c W _ZNSt3mapISsSsSt4lessISsESaISt4pairIKSsSsEEED1Ev
000000000005ea4c W _ZNSt3mapISsSsSt4lessISsESaISt4pairIKSsSsEEED2Ev
000000000006625e W _ZNSt3mapISsSsSt4lessISsESaISt4pairIKSsSsEEEixERS3_
00000000000654a6 W _ZNSt4listIPN5boost22condition_variable_anyESaIS2_EE3endEv
00000000000654cc W _ZNSt4listIPN5boost22condition_variable_anyESaIS2_EE5beginEv
00000000000653cc W _ZNSt4listIPN5boost22condition_variable_anyESaIS2_EEC1Ev
00000000000653cc W _ZNSt4listIPN5boost22condition_variable_anyESaIS2_EEC2Ev
0000000000061f3e W _ZNSt4listIPN5boost22condition_variable_anyESaIS2_EED1Ev
0000000000061f3e W _ZNSt4listIPN5boost22condition_variable_anyESaIS2_EED2Ev
0000000000077b10 W _ZNSt4pairIKN5boost16exception_detail10type_info_ENS0_10shared_ptrINS1_15error_info_baseEEEEC1ERKS7_
00000000000680fc W _ZNSt4pairIKN5boost16exception_detail10type_info_ENS0_10shared_ptrINS1_15error_info_baseEEEEC1ERS3_RKS6_
0000000000077b10 W _ZNSt4pairIKN5boost16exception_detail10type_info_ENS0_10shared_ptrINS1_15error_info_baseEEEEC2ERKS7_
00000000000680fc W _ZNSt4pairIKN5boost16exception_detail10type_info_ENS0_10shared_ptrINS1_15error_info_baseEEEEC2ERS3_RKS6_
00000000000637a8 W _ZNSt4pairIKN5boost16exception_detail10type_info_ENS0_10shared_ptrINS1_15error_info_baseEEEED1Ev
00000000000637a8 W _ZNSt4pairIKN5boost16exception_detail10type_info_ENS0_10shared_ptrINS1_15error_info_baseEEEED2Ev
0000000000072a8e W _ZNSt4pairIKPKvN5boost6detail13tss_data_nodeEED1Ev
0000000000072a8e W _ZNSt4pairIKPKvN5boost6detail13tss_data_nodeEED2Ev
00000000000778f0 W _ZNSt4pairIKSsSsEC1ERKS1_
000000000006d2b4 W _ZNSt4pairIKSsSsEC1ERS0_S2_
00000000000778f0 W _ZNSt4pairIKSsSsEC2ERKS1_
000000000006d2b4 W _ZNSt4pairIKSsSsEC2ERS0_S2_
0000000000066212 W _ZNSt4pairIKSsSsED1Ev
0000000000066212 W _ZNSt4pairIKSsSsED2Ev
000000000006319c W _ZNSt4pairIPN5boost18condition_variableEPNS0_5mutexEEC1ERKS2_RKS4_
000000000006319c W _ZNSt4pairIPN5boost18condition_variableEPNS0_5mutexEEC2ERKS2_RKS4_
00000000000758be W _ZNSt4pairIPSt18_Rb_tree_node_baseS1_EC1ERKS1_S4_
00000000000758be W _ZNSt4pairIPSt18_Rb_tree_node_baseS1_EC2ERKS1_S4_
0000000000063182 W _ZNSt6vectorIN5boost10shared_ptrINS0_6detail17shared_state_baseEEESaIS4_EEC1Ev
0000000000063182 W _ZNSt6vectorIN5boost10shared_ptrINS0_6detail17shared_state_baseEEESaIS4_EEC2Ev
000000000006d3f8 W _ZNSt6vectorISsSaISsEE13_M_insert_auxEN9__gnu_cxx17__normal_iteratorIPSsS1_EERKSs
00000000000722c8 W _ZNSt6vectorISsSaISsEE15_M_range_insertIN9__gnu_cxx17__normal_iteratorIPSsS1_EEEEvS6_T_S7_St20forward_iterator_tag
000000000006e252 W _ZNSt6vectorISsSaISsEE18_M_insert_dispatchIN9__gnu_cxx17__normal_iteratorIPSsS1_EEEEvS6_T_S7_St12__false_type
000000000006dfca W _ZNSt6vectorISsSaISsEE20_M_allocate_and_copyIN9__gnu_cxx17__normal_iteratorIPKSsS1_EEEEPSsmT_S9_
000000000006e19e W _ZNSt6vectorISsSaISsEE20_M_allocate_and_copyIPSsEES3_mT_S4_
00000000000670ce W _ZNSt6vectorISsSaISsEE3endEv
00000000000670f8 W _ZNSt6vectorISsSaISsEE5beginEv
000000000006711e W _ZNSt6vectorISsSaISsEE6insertIN9__gnu_cxx17__normal_iteratorIPSsS1_EEEEvS6_T_S7_
0000000000066fac W _ZNSt6vectorISsSaISsEE7reserveEm
000000000006646c W _ZNSt6vectorISsSaISsEE9push_backERKSs
0000000000066d72 W _ZNSt6vectorISsSaISsEEaSERKS1_
00000000000665ae W _ZNSt6vectorISsSaISsEEC1ERKS1_
000000000006605e W _ZNSt6vectorISsSaISsEEC1Ev
00000000000665ae W _ZNSt6vectorISsSaISsEEC2ERKS1_
000000000006605e W _ZNSt6vectorISsSaISsEEC2Ev
0000000000066078 W _ZNSt6vectorISsSaISsEED1Ev
0000000000066078 W _ZNSt6vectorISsSaISsEED2Ev
0000000000067a94 W _ZNSt6vectorISt4pairIPN5boost18condition_variableEPNS1_5mutexEESaIS6_EE13_M_insert_auxEN9__gnu_cxx17__normal_iteratorIPS6_S8_EERKS6_
0000000000067d90 W _ZNSt6vectorISt4pairIPN5boost18condition_variableEPNS1_5mutexEESaIS6_EE3endEv
000000000006ec76 W _ZNSt6vectorISt4pairIPN5boost18condition_variableEPNS1_5mutexEESaIS6_EE5beginEv
00000000000631cc W _ZNSt6vectorISt4pairIPN5boost18condition_variableEPNS1_5mutexEESaIS6_EE9push_backERKS6_
0000000000063102 W _ZNSt6vectorISt4pairIPN5boost18condition_variableEPNS1_5mutexEESaIS6_EEC1Ev
0000000000063102 W _ZNSt6vectorISt4pairIPN5boost18condition_variableEPNS1_5mutexEESaIS6_EEC2Ev
000000000006311c W _ZNSt6vectorISt4pairIPN5boost18condition_variableEPNS1_5mutexEESaIS6_EED1Ev
000000000006311c W _ZNSt6vectorISt4pairIPN5boost18condition_variableEPNS1_5mutexEESaIS6_EED2Ev
000000000006b96e W _ZNSt8bad_castC1ERKS_
000000000006b96e W _ZNSt8bad_castC2ERKS_
                 U _ZNSt8bad_castD2Ev
                 U _ZNSt8ios_base4InitC1Ev
                 U _ZNSt8ios_base4InitD1Ev
000000000005e7a0 W _ZNSt8ios_base4setfESt13_Ios_FmtflagsS0_
000000000005e7fe W _ZNSt8ios_base5widthEl
000000000006acfa W _ZNSt8ios_base7failureC1ERKS0_
000000000006acfa W _ZNSt8ios_base7failureC2ERKS0_
                 U _ZNSt8ios_base7failureD2Ev
00000000000731fe W _ZNSt8_Rb_treeIN5boost16exception_detail10type_info_ESt4pairIKS2_NS0_10shared_ptrINS1_15error_info_baseEEEESt10_Select1stIS8_ESt4lessIS2_ESaIS8_EE10_M_insert_EPSt18_Rb_tree_node_baseSG_RKS8_
000000000006f4b6 W _ZNSt8_Rb_treeIN5boost16exception_detail10type_info_ESt4pairIKS2_NS0_10shared_ptrINS1_15error_info_baseEEEESt10_Select1stIS8_ESt4lessIS2_ESaIS8_EE10_S_maximumEPSt18_Rb_tree_node_base
000000000006f48a W _ZNSt8_Rb_treeIN5boost16exception_detail10type_info_ESt4pairIKS2_NS0_10shared_ptrINS1_15error_info_baseEEEESt10_Select1stIS8_ESt4lessIS2_ESaIS8_EE10_S_minimumEPSt18_Rb_tree_node_base
000000000006f00a W _ZNSt8_Rb_treeIN5boost16exception_detail10type_info_ESt4pairIKS2_NS0_10shared_ptrINS1_15error_info_baseEEEESt10_Select1stIS8_ESt4lessIS2_ESaIS8_EE11lower_boundERS4_
0000000000077aec W _ZNSt8_Rb_treeIN5boost16exception_detail10type_info_ESt4pairIKS2_NS0_10shared_ptrINS1_15error_info_baseEEEESt10_Select1stIS8_ESt4lessIS2_ESaIS8_EE11_M_get_nodeEv
000000000006f4a4 W _ZNSt8_Rb_treeIN5boost16exception_detail10type_info_ESt4pairIKS2_NS0_10shared_ptrINS1_15error_info_baseEEEESt10_Select1stIS8_ESt4lessIS2_ESaIS8_EE11_M_leftmostEv
0000000000072da0 W _ZNSt8_Rb_treeIN5boost16exception_detail10type_info_ESt4pairIKS2_NS0_10shared_ptrINS1_15error_info_baseEEEESt10_Select1stIS8_ESt4lessIS2_ESaIS8_EE11_M_put_nodeEPSt13_Rb_tree_nodeIS8_E
000000000006f4d0 W _ZNSt8_Rb_treeIN5boost16exception_detail10type_info_ESt4pairIKS2_NS0_10shared_ptrINS1_15error_info_baseEEEESt10_Select1stIS8_ESt4lessIS2_ESaIS8_EE12_M_rightmostEv
000000000007335e W _ZNSt8_Rb_treeIN5boost16exception_detail10type_info_ESt4pairIKS2_NS0_10shared_ptrINS1_15error_info_baseEEEESt10_Select1stIS8_ESt4lessIS2_ESaIS8_EE13_M_clone_nodeEPKSt13_Rb_tree_nodeIS8_E
0000000000072ce4 W _ZNSt8_Rb_treeIN5boost16exception_detail10type_info_ESt4pairIKS2_NS0_10shared_ptrINS1_15error_info_baseEEEESt10_Select1stIS8_ESt4lessIS2_ESaIS8_EE13_Rb_tree_implISC_Lb0EE13_M_initializeEv
000000000006eed0 W _ZNSt8_Rb_treeIN5boost16exception_detail10type_info_ESt4pairIKS2_NS0_10shared_ptrINS1_15error_info_baseEEEESt10_Select1stIS8_ESt4lessIS2_ESaIS8_EE13_Rb_tree_implISC_Lb0EEC1Ev
000000000006eed0 W _ZNSt8_Rb_treeIN5boost16exception_detail10type_info_ESt4pairIKS2_NS0_10shared_ptrINS1_15error_info_baseEEEESt10_Select1stIS8_ESt4lessIS2_ESaIS8_EE13_Rb_tree_implISC_Lb0EEC2Ev
0000000000063710 W _ZNSt8_Rb_treeIN5boost16exception_detail10type_info_ESt4pairIKS2_NS0_10shared_ptrINS1_15error_info_baseEEEESt10_Select1stIS8_ESt4lessIS2_ESaIS8_EE13_Rb_tree_implISC_Lb0EED1Ev
0000000000063710 W _ZNSt8_Rb_treeIN5boost16exception_detail10type_info_ESt4pairIKS2_NS0_10shared_ptrINS1_15error_info_baseEEEESt10_Select1stIS8_ESt4lessIS2_ESaIS8_EE13_Rb_tree_implISC_Lb0EED2Ev
0000000000075acc W _ZNSt8_Rb_treeIN5boost16exception_detail10type_info_ESt4pairIKS2_NS0_10shared_ptrINS1_15error_info_baseEEEESt10_Select1stIS8_ESt4lessIS2_ESaIS8_EE14_M_create_nodeERKS8_
0000000000072dca W _ZNSt8_Rb_treeIN5boost16exception_detail10type_info_ESt4pairIKS2_NS0_10shared_ptrINS1_15error_info_baseEEEESt10_Select1stIS8_ESt4lessIS2_ESaIS8_EE14_M_lower_boundEPSt13_Rb_tree_nodeIS8_ESH_RS4_
000000000006ef82 W _ZNSt8_Rb_treeIN5boost16exception_detail10type_info_ESt4pairIKS2_NS0_10shared_ptrINS1_15error_info_baseEEEESt10_Select1stIS8_ESt4lessIS2_ESaIS8_EE15_M_destroy_nodeEPSt13_Rb_tree_nodeIS8_E
000000000006f0a6 W _ZNSt8_Rb_treeIN5boost16exception_detail10type_info_ESt4pairIKS2_NS0_10shared_ptrINS1_15error_info_baseEEEESt10_Select1stIS8_ESt4lessIS2_ESaIS8_EE17_M_insert_unique_ESt23_Rb_tree_const_iteratorIS8_ERKS8_
00000000000758ee W _ZNSt8_Rb_treeIN5boost16exception_detail10type_info_ESt4pairIKS2_NS0_10shared_ptrINS1_15error_info_baseEEEESt10_Select1stIS8_ESt4lessIS2_ESaIS8_EE24_M_get_insert_unique_posERS4_
0000000000072e72 W _ZNSt8_Rb_treeIN5boost16exception_detail10type_info_ESt4pairIKS2_NS0_10shared_ptrINS1_15error_info_baseEEEESt10_Select1stIS8_ESt4lessIS2_ESaIS8_EE29_M_get_insert_hint_unique_posESt23_Rb_tree_const_iteratorIS8_ERS4_
000000000006f060 W _ZNSt8_Rb_treeIN5boost16exception_detail10type_info_ESt4pairIKS2_NS0_10shared_ptrINS1_15error_info_baseEEEESt10_Select1stIS8_ESt4lessIS2_ESaIS8_EE3endEv
0000000000077ac2 W _ZNSt8_Rb_treeIN5boost16exception_detail10type_info_ESt4pairIKS2_NS0_10shared_ptrINS1_15error_info_baseEEEESt10_Select1stIS8_ESt4lessIS2_ESaIS8_EE5beginEv
000000000006f274 W _ZNSt8_Rb_treeIN5boost16exception_detail10type_info_ESt4pairIKS2_NS0_10shared_ptrINS1_15error_info_baseEEEESt10_Select1stIS8_ESt4lessIS2_ESaIS8_EE5clearEv
000000000006f466 W _ZNSt8_Rb_treeIN5boost16exception_detail10type_info_ESt4pairIKS2_NS0_10shared_ptrINS1_15error_info_baseEEEESt10_Select1stIS8_ESt4lessIS2_ESaIS8_EE6_M_endEv
00000000000732fc W _ZNSt8_Rb_treeIN5boost16exception_detail10type_info_ESt4pairIKS2_NS0_10shared_ptrINS1_15error_info_baseEEEESt10_Select1stIS8_ESt4lessIS2_ESaIS8_EE6_S_keyEPKSt13_Rb_tree_nodeIS8_E
000000000006f20b W _ZNSt8_Rb_treeIN5boost16exception_detail10type_info_ESt4pairIKS2_NS0_10shared_ptrINS1_15error_info_baseEEEESt10_Select1stIS8_ESt4lessIS2_ESaIS8_EE6_S_keyEPKSt18_Rb_tree_node_base
000000000006f314 W _ZNSt8_Rb_treeIN5boost16exception_detail10type_info_ESt4pairIKS2_NS0_10shared_ptrINS1_15error_info_baseEEEESt10_Select1stIS8_ESt4lessIS2_ESaIS8_EE7_M_copyEPKSt13_Rb_tree_nodeIS8_EPSG_
000000000006f478 W _ZNSt8_Rb_treeIN5boost16exception_detail10type_info_ESt4pairIKS2_NS0_10shared_ptrINS1_15error_info_baseEEEESt10_Select1stIS8_ESt4lessIS2_ESaIS8_EE7_M_rootEv
0000000000073328 W _ZNSt8_Rb_treeIN5boost16exception_detail10type_info_ESt4pairIKS2_NS0_10shared_ptrINS1_15error_info_baseEEEESt10_Select1stIS8_ESt4lessIS2_ESaIS8_EE7_S_leftEPKSt18_Rb_tree_node_base
000000000006ef70 W _ZNSt8_Rb_treeIN5boost16exception_detail10type_info_ESt4pairIKS2_NS0_10shared_ptrINS1_15error_info_baseEEEESt10_Select1stIS8_ESt4lessIS2_ESaIS8_EE7_S_leftEPSt18_Rb_tree_node_base
0000000000068026 W _ZNSt8_Rb_treeIN5boost16exception_detail10type_info_ESt4pairIKS2_NS0_10shared_ptrINS1_15error_info_baseEEEESt10_Select1stIS8_ESt4lessIS2_ESaIS8_EE8_M_beginEv
0000000000067fc2 W _ZNSt8_Rb_treeIN5boost16exception_detail10type_info_ESt4pairIKS2_NS0_10shared_ptrINS1_15error_info_baseEEEESt10_Select1stIS8_ESt4lessIS2_ESaIS8_EE8_M_eraseEPSt13_Rb_tree_nodeIS8_E
000000000007333a W _ZNSt8_Rb_treeIN5boost16exception_detail10type_info_ESt4pairIKS2_NS0_10shared_ptrINS1_15error_info_baseEEEESt10_Select1stIS8_ESt4lessIS2_ESaIS8_EE8_S_rightEPKSt18_Rb_tree_node_base
000000000006ef5e W _ZNSt8_Rb_treeIN5boost16exception_detail10type_info_ESt4pairIKS2_NS0_10shared_ptrINS1_15error_info_baseEEEESt10_Select1stIS8_ESt4lessIS2_ESaIS8_EE8_S_rightEPSt18_Rb_tree_node_base
0000000000075b86 W _ZNSt8_Rb_treeIN5boost16exception_detail10type_info_ESt4pairIKS2_NS0_10shared_ptrINS1_15error_info_baseEEEESt10_Select1stIS8_ESt4lessIS2_ESaIS8_EE8_S_valueEPKSt13_Rb_tree_nodeIS8_E
000000000007334c W _ZNSt8_Rb_treeIN5boost16exception_detail10type_info_ESt4pairIKS2_NS0_10shared_ptrINS1_15error_info_baseEEEESt10_Select1stIS8_ESt4lessIS2_ESaIS8_EE8_S_valueEPKSt18_Rb_tree_node_base
000000000006831a W _ZNSt8_Rb_treeIN5boost16exception_detail10type_info_ESt4pairIKS2_NS0_10shared_ptrINS1_15error_info_baseEEEESt10_Select1stIS8_ESt4lessIS2_ESaIS8_EEaSERKSE_
0000000000067f8e W _ZNSt8_Rb_treeIN5boost16exception_detail10type_info_ESt4pairIKS2_NS0_10shared_ptrINS1_15error_info_baseEEEESt10_Select1stIS8_ESt4lessIS2_ESaIS8_EEC1Ev
0000000000067f8e W _ZNSt8_Rb_treeIN5boost16exception_detail10type_info_ESt4pairIKS2_NS0_10shared_ptrINS1_15error_info_baseEEEESt10_Select1stIS8_ESt4lessIS2_ESaIS8_EEC2Ev
000000000006372a W _ZNSt8_Rb_treeIN5boost16exception_detail10type_info_ESt4pairIKS2_NS0_10shared_ptrINS1_15error_info_baseEEEESt10_Select1stIS8_ESt4lessIS2_ESaIS8_EED1Ev
000000000006372a W _ZNSt8_Rb_treeIN5boost16exception_detail10type_info_ESt4pairIKS2_NS0_10shared_ptrINS1_15error_info_baseEEEESt10_Select1stIS8_ESt4lessIS2_ESaIS8_EED2Ev
0000000000072aca W _ZNSt8_Rb_treeIPKvSt4pairIKS1_N5boost6detail13tss_data_nodeEESt10_Select1stIS7_ESt4lessIS1_ESaIS7_EE11_M_put_nodeEPSt13_Rb_tree_nodeIS7_E
00000000000729d6 W _ZNSt8_Rb_treeIPKvSt4pairIKS1_N5boost6detail13tss_data_nodeEESt10_Select1stIS7_ESt4lessIS1_ESaIS7_EE13_Rb_tree_implISB_Lb0EE13_M_initializeEv
000000000006e8da W _ZNSt8_Rb_treeIPKvSt4pairIKS1_N5boost6detail13tss_data_nodeEESt10_Select1stIS7_ESt4lessIS1_ESaIS7_EE13_Rb_tree_implISB_Lb0EEC1Ev
000000000006e8da W _ZNSt8_Rb_treeIPKvSt4pairIKS1_N5boost6detail13tss_data_nodeEESt10_Select1stIS7_ESt4lessIS1_ESaIS7_EE13_Rb_tree_implISB_Lb0EEC2Ev
000000000006308e W _ZNSt8_Rb_treeIPKvSt4pairIKS1_N5boost6detail13tss_data_nodeEESt10_Select1stIS7_ESt4lessIS1_ESaIS7_EE13_Rb_tree_implISB_Lb0EED1Ev
000000000006308e W _ZNSt8_Rb_treeIPKvSt4pairIKS1_N5boost6detail13tss_data_nodeEESt10_Select1stIS7_ESt4lessIS1_ESaIS7_EE13_Rb_tree_implISB_Lb0EED2Ev
000000000006e98c W _ZNSt8_Rb_treeIPKvSt4pairIKS1_N5boost6detail13tss_data_nodeEESt10_Select1stIS7_ESt4lessIS1_ESaIS7_EE15_M_destroy_nodeEPSt13_Rb_tree_nodeIS7_E
000000000006e97a W _ZNSt8_Rb_treeIPKvSt4pairIKS1_N5boost6detail13tss_data_nodeEESt10_Select1stIS7_ESt4lessIS1_ESaIS7_EE7_S_leftEPSt18_Rb_tree_node_base
000000000006795c W _ZNSt8_Rb_treeIPKvSt4pairIKS1_N5boost6detail13tss_data_nodeEESt10_Select1stIS7_ESt4lessIS1_ESaIS7_EE8_M_beginEv
00000000000678f8 W _ZNSt8_Rb_treeIPKvSt4pairIKS1_N5boost6detail13tss_data_nodeEESt10_Select1stIS7_ESt4lessIS1_ESaIS7_EE8_M_eraseEPSt13_Rb_tree_nodeIS7_E
000000000006e968 W _ZNSt8_Rb_treeIPKvSt4pairIKS1_N5boost6detail13tss_data_nodeEESt10_Select1stIS7_ESt4lessIS1_ESaIS7_EE8_S_rightEPSt18_Rb_tree_node_base
00000000000678c4 W _ZNSt8_Rb_treeIPKvSt4pairIKS1_N5boost6detail13tss_data_nodeEESt10_Select1stIS7_ESt4lessIS1_ESaIS7_EEC1Ev
00000000000678c4 W _ZNSt8_Rb_treeIPKvSt4pairIKS1_N5boost6detail13tss_data_nodeEESt10_Select1stIS7_ESt4lessIS1_ESaIS7_EEC2Ev
00000000000630a8 W _ZNSt8_Rb_treeIPKvSt4pairIKS1_N5boost6detail13tss_data_nodeEESt10_Select1stIS7_ESt4lessIS1_ESaIS7_EED1Ev
00000000000630a8 W _ZNSt8_Rb_treeIPKvSt4pairIKS1_N5boost6detail13tss_data_nodeEESt10_Select1stIS7_ESt4lessIS1_ESaIS7_EED2Ev
0000000000074944 W _ZNSt8_Rb_treeISsSt4pairIKSsSsESt10_Select1stIS2_ESt4lessISsESaIS2_EE10_M_insert_EPSt18_Rb_tree_node_baseSA_RKS2_
00000000000716d8 W _ZNSt8_Rb_treeISsSt4pairIKSsSsESt10_Select1stIS2_ESt4lessISsESaIS2_EE11lower_boundERS1_
00000000000778cc W _ZNSt8_Rb_treeISsSt4pairIKSsSsESt10_Select1stIS2_ESt4lessISsESaIS2_EE11_M_get_nodeEv
000000000006e574 W _ZNSt8_Rb_treeISsSt4pairIKSsSsESt10_Select1stIS2_ESt4lessISsESaIS2_EE11_M_leftmostEv
0000000000072992 W _ZNSt8_Rb_treeISsSt4pairIKSsSsESt10_Select1stIS2_ESt4lessISsESaIS2_EE11_M_put_nodeEPSt13_Rb_tree_nodeIS2_E
000000000006e586 W _ZNSt8_Rb_treeISsSt4pairIKSsSsESt10_Select1stIS2_ESt4lessISsESaIS2_EE12_M_rightmostEv
00000000000728d6 W _ZNSt8_Rb_treeISsSt4pairIKSsSsESt10_Select1stIS2_ESt4lessISsESaIS2_EE13_Rb_tree_implIS6_Lb0EE13_M_initializeEv
0000000000071654 W _ZNSt8_Rb_treeISsSt4pairIKSsSsESt10_Select1stIS2_ESt4lessISsESaIS2_EE13_Rb_tree_implIS6_Lb0EEC1Ev
0000000000071654 W _ZNSt8_Rb_treeISsSt4pairIKSsSsESt10_Select1stIS2_ESt4lessISsESaIS2_EE13_Rb_tree_implIS6_Lb0EEC2Ev
0000000000062a04 W _ZNSt8_Rb_treeISsSt4pairIKSsSsESt10_Select1stIS2_ESt4lessISsESaIS2_EE13_Rb_tree_implIS6_Lb0EED1Ev
0000000000062a04 W _ZNSt8_Rb_treeISsSt4pairIKSsSsESt10_Select1stIS2_ESt4lessISsESaIS2_EE13_Rb_tree_implIS6_Lb0EED2Ev
00000000000755e4 W _ZNSt8_Rb_treeISsSt4pairIKSsSsESt10_Select1stIS2_ESt4lessISsESaIS2_EE14_M_create_nodeERKS2_
000000000007452a W _ZNSt8_Rb_treeISsSt4pairIKSsSsESt10_Select1stIS2_ESt4lessISsESaIS2_EE14_M_lower_boundEPSt13_Rb_tree_nodeIS2_ESB_RS1_
000000000006e5c6 W _ZNSt8_Rb_treeISsSt4pairIKSsSsESt10_Select1stIS2_ESt4lessISsESaIS2_EE15_M_destroy_nodeEPSt13_Rb_tree_nodeIS2_E
000000000007172e W _ZNSt8_Rb_treeISsSt4pairIKSsSsESt10_Select1stIS2_ESt4lessISsESaIS2_EE17_M_insert_unique_ESt23_Rb_tree_const_iteratorIS2_ERKS2_
0000000000076f48 W _ZNSt8_Rb_treeISsSt4pairIKSsSsESt10_Select1stIS2_ESt4lessISsESaIS2_EE24_M_get_insert_unique_posERS1_
00000000000745b8 W _ZNSt8_Rb_treeISsSt4pairIKSsSsESt10_Select1stIS2_ESt4lessISsESaIS2_EE29_M_get_insert_hint_unique_posESt23_Rb_tree_const_iteratorIS2_ERS1_
000000000006d380 W _ZNSt8_Rb_treeISsSt4pairIKSsSsESt10_Select1stIS2_ESt4lessISsESaIS2_EE3endEv
000000000006d356 W _ZNSt8_Rb_treeISsSt4pairIKSsSsESt10_Select1stIS2_ESt4lessISsESaIS2_EE5beginEv
000000000006e562 W _ZNSt8_Rb_treeISsSt4pairIKSsSsESt10_Select1stIS2_ESt4lessISsESaIS2_EE6_M_endEv
0000000000076ec8 W _ZNSt8_Rb_treeISsSt4pairIKSsSsESt10_Select1stIS2_ESt4lessISsESaIS2_EE6_S_keyEPKSt13_Rb_tree_nodeIS2_E
0000000000076f1c W _ZNSt8_Rb_treeISsSt4pairIKSsSsESt10_Select1stIS2_ESt4lessISsESaIS2_EE6_S_keyEPKSt18_Rb_tree_node_base
000000000006e5b4 W _ZNSt8_Rb_treeISsSt4pairIKSsSsESt10_Select1stIS2_ESt4lessISsESaIS2_EE7_S_leftEPSt18_Rb_tree_node_base
00000000000674ac W _ZNSt8_Rb_treeISsSt4pairIKSsSsESt10_Select1stIS2_ESt4lessISsESaIS2_EE8_M_beginEv
0000000000067448 W _ZNSt8_Rb_treeISsSt4pairIKSsSsESt10_Select1stIS2_ESt4lessISsESaIS2_EE8_M_eraseEPSt13_Rb_tree_nodeIS2_E
000000000006e5a2 W _ZNSt8_Rb_treeISsSt4pairIKSsSsESt10_Select1stIS2_ESt4lessISsESaIS2_EE8_S_rightEPSt18_Rb_tree_node_base
0000000000077c10 W _ZNSt8_Rb_treeISsSt4pairIKSsSsESt10_Select1stIS2_ESt4lessISsESaIS2_EE8_S_valueEPKSt13_Rb_tree_nodeIS2_E
0000000000077c22 W _ZNSt8_Rb_treeISsSt4pairIKSsSsESt10_Select1stIS2_ESt4lessISsESaIS2_EE8_S_valueEPKSt18_Rb_tree_node_base
000000000006d1c6 W _ZNSt8_Rb_treeISsSt4pairIKSsSsESt10_Select1stIS2_ESt4lessISsESaIS2_EEC1Ev
000000000006d1c6 W _ZNSt8_Rb_treeISsSt4pairIKSsSsESt10_Select1stIS2_ESt4lessISsESaIS2_EEC2Ev
0000000000062a1e W _ZNSt8_Rb_treeISsSt4pairIKSsSsESt10_Select1stIS2_ESt4lessISsESaIS2_EED1Ev
0000000000062a1e W _ZNSt8_Rb_treeISsSt4pairIKSsSsESt10_Select1stIS2_ESt4lessISsESaIS2_EED2Ev
00000000000602dc W _ZNSt9bad_allocC1ERKS_
000000000005e698 W _ZNSt9bad_allocC1Ev
00000000000602dc W _ZNSt9bad_allocC2ERKS_
000000000005e698 W _ZNSt9bad_allocC2Ev
                 U _ZNSt9bad_allocD2Ev
                 U _ZNSt9basic_iosIcSt11char_traitsIcEE4fillEc
00000000000602bc W _ZNSt9exceptionC1ERKS_
000000000005e650 W _ZNSt9exceptionC1Ev
00000000000602bc W _ZNSt9exceptionC2ERKS_
000000000005e650 W _ZNSt9exceptionC2Ev
                 U _ZNSt9exceptionD2Ev
                 U _Znwm
000000000005e6c4 W _ZnwmPv
00000000000772c4 W _ZSt10_ConstructISsSsEvPT_RKT0_
0000000000078295 W _ZSt10_ConstructISt4pairIPN5boost18condition_variableEPNS1_5mutexEES6_EvPT_RKT0_
000000000007756d W _ZSt10__distanceIN9__gnu_cxx17__normal_iteratorIPSsSt6vectorISsSaISsEEEEENSt15iterator_traitsIT_E15difference_typeES8_S8_St26random_access_iterator_tag
00000000000682a9 W _ZSt11__addressofIKSt4pairIKN5boost16exception_detail10type_info_ENS1_10shared_ptrINS2_15error_info_baseEEEEEPT_RSA_
000000000006d3a9 W _ZSt11__addressofIKSt4pairIKSsSsEEPT_RS4_
0000000000070eb0 W _ZSt11__addressofIPN5boost22condition_variable_anyEEPT_RS3_
000000000006e528 W _ZSt11__addressofISsEPT_RS0_
0000000000072d74 W _ZSt11__addressofISt4pairIKN5boost16exception_detail10type_info_ENS1_10shared_ptrINS2_15error_info_baseEEEEEPT_RS9_
0000000000072a66 W _ZSt11__addressofISt4pairIKPKvN5boost6detail13tss_data_nodeEEEPT_RS8_
0000000000072966 W _ZSt11__addressofISt4pairIKSsSsEEPT_RS3_
0000000000078287 W _ZSt11__addressofISt4pairIPN5boost18condition_variableEPNS1_5mutexEEEPT_RS7_
000000000007215c W _ZSt12__miter_baseIN9__gnu_cxx17__normal_iteratorIPKSsSt6vectorISsSaISsEEEEENSt11_Miter_baseIT_E13iterator_typeES9_
0000000000077592 W _ZSt12__miter_baseIN9__gnu_cxx17__normal_iteratorIPSsSt6vectorISsSaISsEEEEENSt11_Miter_baseIT_E13iterator_typeES8_
000000000007220e W _ZSt12__miter_baseIPSsENSt11_Miter_baseIT_E13iterator_typeES2_
0000000000072b62 W _ZSt12__miter_baseIPSt4pairIPN5boost18condition_variableEPNS1_5mutexEEENSt11_Miter_baseIT_E13iterator_typeES9_
000000000007505b W _ZSt12__niter_baseIN9__gnu_cxx17__normal_iteratorIPKSsSt6vectorISsSaISsEEEEENSt11_Niter_baseIT_E13iterator_typeES9_
0000000000075075 W _ZSt12__niter_baseIN9__gnu_cxx17__normal_iteratorIPSsSt6vectorISsSaISsEEEEENSt11_Niter_baseIT_E13iterator_typeES8_
0000000000075121 W _ZSt12__niter_baseIPSsENSt11_Niter_baseIT_E13iterator_typeES2_
000000000007576c W _ZSt12__niter_baseIPSt4pairIPN5boost18condition_variableEPNS1_5mutexEEENSt11_Niter_baseIT_E13iterator_typeES9_
0000000000071842 W _ZSt13copy_backwardIPSsS0_ET0_T_S2_S1_
000000000006eb54 W _ZSt13copy_backwardIPSt4pairIPN5boost18condition_variableEPNS1_5mutexEES7_ET0_T_S9_S8_
000000000007508f W _ZSt13__copy_move_aILb0EPKSsPSsET1_T0_S4_S3_
000000000007513b W _ZSt13__copy_move_aILb0EPSsS0_ET1_T0_S2_S1_
0000000000072176 W _ZSt14__copy_move_a2ILb0EN9__gnu_cxx17__normal_iteratorIPKSsSt6vectorISsSaISsEEEENS1_IPSsS6_EEET1_T0_SB_SA_
00000000000775ac W _ZSt14__copy_move_a2ILb0EN9__gnu_cxx17__normal_iteratorIPSsSt6vectorISsSaISsEEEES6_ET1_T0_S8_S7_
0000000000072228 W _ZSt14__copy_move_a2ILb0EPSsS0_ET1_T0_S2_S1_
                 U _ZSt17__throw_bad_allocv
                 U _ZSt18_Rb_tree_decrementPSt18_Rb_tree_node_base
                 U _ZSt18_Rb_tree_incrementPKSt18_Rb_tree_node_base
                 U _ZSt18_Rb_tree_incrementPSt18_Rb_tree_node_base
0000000000071d25 W _ZSt18uninitialized_copyIN9__gnu_cxx17__normal_iteratorIPKSsSt6vectorISsSaISsEEEEPSsET0_T_SA_S9_
0000000000077644 W _ZSt18uninitialized_copyIN9__gnu_cxx17__normal_iteratorIPSsSt6vectorISsSaISsEEEES2_ET0_T_S8_S7_
0000000000072280 W _ZSt18uninitialized_copyIPSsS0_ET0_T_S2_S1_
00000000000757f4 W _ZSt18uninitialized_copyIPSt4pairIPN5boost18condition_variableEPNS1_5mutexEES7_ET0_T_S9_S8_
0000000000077563 W _ZSt19__iterator_categoryIN9__gnu_cxx17__normal_iteratorIPSsSt6vectorISsSaISsEEEEENSt15iterator_traitsIT_E17iterator_categoryERKS8_
                 U _ZSt20__throw_length_errorPKc
0000000000077126 W _ZSt22__copy_move_backward_aILb0EPSsS0_ET1_T0_S2_S1_
0000000000075786 W _ZSt22__copy_move_backward_aILb0EPSt4pairIPN5boost18condition_variableEPNS1_5mutexEES7_ET1_T0_S9_S8_
000000000006d91c W _ZSt22__uninitialized_copy_aIN9__gnu_cxx17__normal_iteratorIPKSsSt6vectorISsSaISsEEEEPSsSsET0_T_SA_S9_RSaIT1_E
000000000007533e W _ZSt22__uninitialized_copy_aIN9__gnu_cxx17__normal_iteratorIPSsSt6vectorISsSaISsEEEES2_SsET0_T_S8_S7_RSaIT1_E
000000000006e14b W _ZSt22__uninitialized_copy_aIPSsS0_SsET0_T_S2_S1_RSaIT1_E
0000000000072c8a W _ZSt22__uninitialized_copy_aIPSt4pairIPN5boost18condition_variableEPNS1_5mutexEES7_S6_ET0_T_S9_S8_RSaIT1_E
0000000000075284 W _ZSt22__uninitialized_move_aIPSsS0_SaISsEET0_T_S3_S2_RT1_
0000000000074a42 W _ZSt23__copy_move_backward_a2ILb0EPSsS0_ET1_T0_S2_S1_
0000000000072b7c W _ZSt23__copy_move_backward_a2ILb0EPSt4pairIPN5boost18condition_variableEPNS1_5mutexEES7_ET1_T0_S9_S8_
                 U _ZSt29_Rb_tree_insert_and_rebalancebPSt18_Rb_tree_node_baseS0_RS_
00000000000719de W _ZSt34__uninitialized_move_if_noexcept_aIPSsS0_SaISsEET0_T_S3_S2_RT1_
000000000006ed16 W _ZSt34__uninitialized_move_if_noexcept_aIPSt4pairIPN5boost18condition_variableEPNS1_5mutexEES7_SaIS6_EET0_T_SA_S9_RT1_
000000000005e828 W _ZSt3hexRSt8ios_base
0000000000072c1c W _ZSt3maxImERKT_S2_S2_
000000000006e096 W _ZSt4copyIN9__gnu_cxx17__normal_iteratorIPKSsSt6vectorISsSaISsEEEENS1_IPSsS6_EEET0_T_SB_SA_
00000000000752b6 W _ZSt4copyIN9__gnu_cxx17__normal_iteratorIPSsSt6vectorISsSaISsEEEES6_ET0_T_S8_S7_
000000000006e105 W _ZSt4copyIPSsS0_ET0_T_S2_S1_
                 U _ZSt4cout
00000000000604b0 W _ZSt4setwi
0000000000070dd1 W _ZSt4swapIPKN5boost16exception_detail10clone_baseEEvRT_S6_
000000000006f127 W _ZSt4swapIPN5boost16exception_detail15error_info_baseEEvRT_S5_
0000000000077240 W _ZSt4swapIPN5boost6detail12shared_stateISt6vectorISsSaISsEEEEEvRT_S9_
00000000000752fc W _ZSt7advanceIN9__gnu_cxx17__normal_iteratorIPSsSt6vectorISsSaISsEEEEmEvRT_T0_
00000000000721e9 W _ZSt8_DestroyIN9__gnu_cxx17__normal_iteratorIPSsSt6vectorISsSaISsEEEEEvT_S7_
000000000006e0dc W _ZSt8_DestroyIN9__gnu_cxx17__normal_iteratorIPSsSt6vectorISsSaISsEEEESsEvT_S7_RSaIT0_E
000000000007162f W _ZSt8_DestroyIPSsEvT_S1_
000000000006d19c W _ZSt8_DestroyIPSsSsEvT_S1_RSaIT0_E
000000000006eaa0 W _ZSt8_DestroyIPSt4pairIPN5boost18condition_variableEPNS1_5mutexEEEvT_S8_
0000000000067a22 W _ZSt8_DestroyIPSt4pairIPN5boost18condition_variableEPNS1_5mutexEES6_EvT_S8_RSaIT0_E
0000000000076ea4 W _ZSt8_DestroyISsEvPT_
000000000007524a W _ZSt8distanceIN9__gnu_cxx17__normal_iteratorIPSsSt6vectorISsSaISsEEEEENSt15iterator_traitsIT_E15difference_typeES8_S8_
000000000007761f W _ZSt9__advanceIN9__gnu_cxx17__normal_iteratorIPSsSt6vectorISsSaISsEEEElEvRT_T0_St26random_access_iterator_tag
000000000005e773 W _ZStaNRSt13_Ios_FmtflagsS_
000000000005e710 W _ZStanSt13_Ios_FmtflagsS_
000000000005e738 W _ZStcoSt13_Ios_Fmtflags
000000000029bd48 b _ZStL8__ioinit
000000000029beb8 b _ZStL8__ioinit
                 U _ZStlsIcSt11char_traitsIcEERSt13basic_ostreamIT_T0_ES6_St5_Setw
                 U _ZStlsIcSt11char_traitsIcESaIcEERSt13basic_ostreamIT_T0_ES7_RKSbIS4_S5_T1_E
                 U _ZStlsISt11char_traitsIcEERSt13basic_ostreamIcT_ES5_PKc
00000000000629db W _ZStltIcSt11char_traitsIcESaIcEEbRKSbIT_T0_T1_ES8_
000000000005e746 W _ZStoRRSt13_Ios_FmtflagsS_
000000000005e724 W _ZStorSt13_Ios_FmtflagsS_
000000000007c13b W _ZStplIcSt11char_traitsIcESaIcEESbIT_T0_T1_EPKS3_RKS6_
000000000007c1df W _ZStplIcSt11char_traitsIcESaIcEESbIT_T0_T1_ERKS6_PKS3_
0000000000071179 W _ZThn16_N5boost16exception_detail10clone_implINS0_19error_info_injectorINS_17bad_function_callEEEED0Ev
0000000000071140 W _ZThn16_N5boost16exception_detail10clone_implINS0_19error_info_injectorINS_17bad_function_callEEEED1Ev
0000000000070687 W _ZThn16_N5boost16exception_detail10clone_implINS0_39current_exception_std_exception_wrapperINSt8ios_base7failureEEEED0Ev
000000000007064e W _ZThn16_N5boost16exception_detail10clone_implINS0_39current_exception_std_exception_wrapperINSt8ios_base7failureEEEED1Ev
00000000000700b7 W _ZThn16_N5boost16exception_detail10clone_implINS0_39current_exception_std_exception_wrapperISt11logic_errorEEED0Ev
000000000007007e W _ZThn16_N5boost16exception_detail10clone_implINS0_39current_exception_std_exception_wrapperISt11logic_errorEEED1Ev
000000000007022b W _ZThn16_N5boost16exception_detail10clone_implINS0_39current_exception_std_exception_wrapperISt11range_errorEEED0Ev
00000000000701f2 W _ZThn16_N5boost16exception_detail10clone_implINS0_39current_exception_std_exception_wrapperISt11range_errorEEED1Ev
000000000006fae7 W _ZThn16_N5boost16exception_detail10clone_implINS0_39current_exception_std_exception_wrapperISt12domain_errorEEED0Ev
000000000006faae W _ZThn16_N5boost16exception_detail10clone_implINS0_39current_exception_std_exception_wrapperISt12domain_errorEEED1Ev
000000000006fdcf W _ZThn16_N5boost16exception_detail10clone_implINS0_39current_exception_std_exception_wrapperISt12length_errorEEED0Ev
000000000006fd96 W _ZThn16_N5boost16exception_detail10clone_implINS0_39current_exception_std_exception_wrapperISt12length_errorEEED1Ev
000000000006ff43 W _ZThn16_N5boost16exception_detail10clone_implINS0_39current_exception_std_exception_wrapperISt12out_of_rangeEEED0Ev
000000000006ff0a W _ZThn16_N5boost16exception_detail10clone_implINS0_39current_exception_std_exception_wrapperISt12out_of_rangeEEED1Ev
00000000000707fb W _ZThn16_N5boost16exception_detail10clone_implINS0_39current_exception_std_exception_wrapperISt13runtime_errorEEED0Ev
00000000000707c2 W _ZThn16_N5boost16exception_detail10clone_implINS0_39current_exception_std_exception_wrapperISt13runtime_errorEEED1Ev
000000000007039f W _ZThn16_N5boost16exception_detail10clone_implINS0_39current_exception_std_exception_wrapperISt14overflow_errorEEED0Ev
0000000000070366 W _ZThn16_N5boost16exception_detail10clone_implINS0_39current_exception_std_exception_wrapperISt14overflow_errorEEED1Ev
0000000000070513 W _ZThn16_N5boost16exception_detail10clone_implINS0_39current_exception_std_exception_wrapperISt15underflow_errorEEED0Ev
00000000000704da W _ZThn16_N5boost16exception_detail10clone_implINS0_39current_exception_std_exception_wrapperISt15underflow_errorEEED1Ev
000000000006fc5b W _ZThn16_N5boost16exception_detail10clone_implINS0_39current_exception_std_exception_wrapperISt16invalid_argumentEEED0Ev
000000000006fc22 W _ZThn16_N5boost16exception_detail10clone_implINS0_39current_exception_std_exception_wrapperISt16invalid_argumentEEED1Ev
000000000007107a W _ZThn16_N5boost16exception_detail19error_info_injectorINS_17bad_function_callEED0Ev
000000000007104a W _ZThn16_N5boost16exception_detail19error_info_injectorINS_17bad_function_callEED1Ev
000000000006aeb2 W _ZThn16_N5boost16exception_detail39current_exception_std_exception_wrapperINSt8ios_base7failureEED0Ev
000000000006ae82 W _ZThn16_N5boost16exception_detail39current_exception_std_exception_wrapperINSt8ios_base7failureEED1Ev
0000000000069d96 W _ZThn16_N5boost16exception_detail39current_exception_std_exception_wrapperISt11logic_errorED0Ev
0000000000069d66 W _ZThn16_N5boost16exception_detail39current_exception_std_exception_wrapperISt11logic_errorED1Ev
000000000006a1ce W _ZThn16_N5boost16exception_detail39current_exception_std_exception_wrapperISt11range_errorED0Ev
000000000006a19e W _ZThn16_N5boost16exception_detail39current_exception_std_exception_wrapperISt11range_errorED1Ev
0000000000068d5e W _ZThn16_N5boost16exception_detail39current_exception_std_exception_wrapperISt12domain_errorED0Ev
0000000000068d2e W _ZThn16_N5boost16exception_detail39current_exception_std_exception_wrapperISt12domain_errorED1Ev
0000000000069596 W _ZThn16_N5boost16exception_detail39current_exception_std_exception_wrapperISt12length_errorED0Ev
0000000000069566 W _ZThn16_N5boost16exception_detail39current_exception_std_exception_wrapperISt12length_errorED1Ev
0000000000069996 W _ZThn16_N5boost16exception_detail39current_exception_std_exception_wrapperISt12out_of_rangeED0Ev
0000000000069966 W _ZThn16_N5boost16exception_detail39current_exception_std_exception_wrapperISt12out_of_rangeED1Ev
000000000006b2b2 W _ZThn16_N5boost16exception_detail39current_exception_std_exception_wrapperISt13runtime_errorED0Ev
000000000006b282 W _ZThn16_N5boost16exception_detail39current_exception_std_exception_wrapperISt13runtime_errorED1Ev
000000000006a606 W _ZThn16_N5boost16exception_detail39current_exception_std_exception_wrapperISt14overflow_errorED0Ev
000000000006a5d6 W _ZThn16_N5boost16exception_detail39current_exception_std_exception_wrapperISt14overflow_errorED1Ev
000000000006aa3e W _ZThn16_N5boost16exception_detail39current_exception_std_exception_wrapperISt15underflow_errorED0Ev
000000000006aa0e W _ZThn16_N5boost16exception_detail39current_exception_std_exception_wrapperISt15underflow_errorED1Ev
0000000000069196 W _ZThn16_N5boost16exception_detail39current_exception_std_exception_wrapperISt16invalid_argumentED0Ev
0000000000069166 W _ZThn16_N5boost16exception_detail39current_exception_std_exception_wrapperISt16invalid_argumentED1Ev
000000000006cf15 W _ZThn32_N5boost16exception_detail10clone_implINS0_19error_info_injectorINS_13promise_movedEEEED0Ev
000000000006cedc W _ZThn32_N5boost16exception_detail10clone_implINS0_19error_info_injectorINS_13promise_movedEEEED1Ev
00000000000720e5 W _ZThn32_N5boost16exception_detail10clone_implINS0_19error_info_injectorINS_20future_uninitializedEEEED0Ev
00000000000720ac W _ZThn32_N5boost16exception_detail10clone_implINS0_19error_info_injectorINS_20future_uninitializedEEEED1Ev
000000000006d0d7 W _ZThn32_N5boost16exception_detail10clone_implINS0_19error_info_injectorINS_24future_already_retrievedEEEED0Ev
000000000006d09e W _ZThn32_N5boost16exception_detail10clone_implINS0_19error_info_injectorINS_24future_already_retrievedEEEED1Ev
000000000006cbcd W _ZThn32_N5boost16exception_detail10clone_implINS0_19error_info_injectorINS_25promise_already_satisfiedEEEED0Ev
000000000006cb94 W _ZThn32_N5boost16exception_detail10clone_implINS0_19error_info_injectorINS_25promise_already_satisfiedEEEED1Ev
000000000006ce16 W _ZThn32_N5boost16exception_detail19error_info_injectorINS_13promise_movedEED0Ev
000000000006cde6 W _ZThn32_N5boost16exception_detail19error_info_injectorINS_13promise_movedEED1Ev
0000000000071fe6 W _ZThn32_N5boost16exception_detail19error_info_injectorINS_20future_uninitializedEED0Ev
0000000000071fb6 W _ZThn32_N5boost16exception_detail19error_info_injectorINS_20future_uninitializedEED1Ev
000000000006cfd8 W _ZThn32_N5boost16exception_detail19error_info_injectorINS_24future_already_retrievedEED0Ev
000000000006cfa8 W _ZThn32_N5boost16exception_detail19error_info_injectorINS_24future_already_retrievedEED1Ev
000000000006cace W _ZThn32_N5boost16exception_detail19error_info_injectorINS_25promise_already_satisfiedEED0Ev
000000000006ca9e W _ZThn32_N5boost16exception_detail19error_info_injectorINS_25promise_already_satisfiedEED1Ev
0000000000060d5e W _ZThn40_N5boost16exception_detail10bad_alloc_D0Ev
0000000000060d2e W _ZThn40_N5boost16exception_detail10bad_alloc_D1Ev
000000000006880b W _ZThn40_N5boost16exception_detail10clone_implINS0_10bad_alloc_EED0Ev
00000000000687d2 W _ZThn40_N5boost16exception_detail10clone_implINS0_10bad_alloc_EED1Ev
0000000000068aa1 W _ZThn40_N5boost16exception_detail10clone_implINS0_14bad_exception_EED0Ev
0000000000068a68 W _ZThn40_N5boost16exception_detail10clone_implINS0_14bad_exception_EED1Ev
0000000000067893 W _ZThn40_N5boost16exception_detail10clone_implINS0_19error_info_injectorINS_10lock_errorEEEED0Ev
000000000006785a W _ZThn40_N5boost16exception_detail10clone_implINS0_19error_info_injectorINS_10lock_errorEEEED1Ev
0000000000067f75 W _ZThn40_N5boost16exception_detail10clone_implINS0_19error_info_injectorINS_15condition_errorEEEED0Ev
0000000000067f3c W _ZThn40_N5boost16exception_detail10clone_implINS0_19error_info_injectorINS_15condition_errorEEEED1Ev
00000000000676d1 W _ZThn40_N5boost16exception_detail10clone_implINS0_19error_info_injectorINS_21thread_resource_errorEEEED0Ev
0000000000067698 W _ZThn40_N5boost16exception_detail10clone_implINS0_19error_info_injectorINS_21thread_resource_errorEEEED1Ev
00000000000685f3 W _ZThn40_N5boost16exception_detail10clone_implINS_17unknown_exceptionEED0Ev
00000000000685ba W _ZThn40_N5boost16exception_detail10clone_implINS_17unknown_exceptionEED1Ev
0000000000060df8 W _ZThn40_N5boost16exception_detail14bad_exception_D0Ev
0000000000060dc8 W _ZThn40_N5boost16exception_detail14bad_exception_D1Ev
0000000000067794 W _ZThn40_N5boost16exception_detail19error_info_injectorINS_10lock_errorEED0Ev
0000000000067764 W _ZThn40_N5boost16exception_detail19error_info_injectorINS_10lock_errorEED1Ev
0000000000067e76 W _ZThn40_N5boost16exception_detail19error_info_injectorINS_15condition_errorEED0Ev
0000000000067e46 W _ZThn40_N5boost16exception_detail19error_info_injectorINS_15condition_errorEED1Ev
00000000000675d2 W _ZThn40_N5boost16exception_detail19error_info_injectorINS_21thread_resource_errorEED0Ev
00000000000675a2 W _ZThn40_N5boost16exception_detail19error_info_injectorINS_21thread_resource_errorEED1Ev
0000000000061088 W _ZThn40_N5boost17unknown_exceptionD0Ev
0000000000061058 W _ZThn40_N5boost17unknown_exceptionD1Ev
0000000000070c57 W _ZThn8_N5boost16exception_detail10clone_implINS0_39current_exception_std_exception_wrapperISt10bad_typeidEEED0Ev
0000000000070c1e W _ZThn8_N5boost16exception_detail10clone_implINS0_39current_exception_std_exception_wrapperISt10bad_typeidEEED1Ev
0000000000070dcb W _ZThn8_N5boost16exception_detail10clone_implINS0_39current_exception_std_exception_wrapperISt13bad_exceptionEEED0Ev
0000000000070d92 W _ZThn8_N5boost16exception_detail10clone_implINS0_39current_exception_std_exception_wrapperISt13bad_exceptionEEED1Ev
0000000000070ae3 W _ZThn8_N5boost16exception_detail10clone_implINS0_39current_exception_std_exception_wrapperISt8bad_castEEED0Ev
0000000000070aaa W _ZThn8_N5boost16exception_detail10clone_implINS0_39current_exception_std_exception_wrapperISt8bad_castEEED1Ev
000000000007096f W _ZThn8_N5boost16exception_detail10clone_implINS0_39current_exception_std_exception_wrapperISt9bad_allocEEED0Ev
0000000000070936 W _ZThn8_N5boost16exception_detail10clone_implINS0_39current_exception_std_exception_wrapperISt9bad_allocEEED1Ev
000000000006bf22 W _ZThn8_N5boost16exception_detail39current_exception_std_exception_wrapperISt10bad_typeidED0Ev
000000000006bef2 W _ZThn8_N5boost16exception_detail39current_exception_std_exception_wrapperISt10bad_typeidED1Ev
000000000006c322 W _ZThn8_N5boost16exception_detail39current_exception_std_exception_wrapperISt13bad_exceptionED0Ev
000000000006c2f2 W _ZThn8_N5boost16exception_detail39current_exception_std_exception_wrapperISt13bad_exceptionED1Ev
000000000006baea W _ZThn8_N5boost16exception_detail39current_exception_std_exception_wrapperISt8bad_castED0Ev
000000000006baba W _ZThn8_N5boost16exception_detail39current_exception_std_exception_wrapperISt8bad_castED1Ev
000000000006b6b2 W _ZThn8_N5boost16exception_detail39current_exception_std_exception_wrapperISt9bad_allocED0Ev
000000000006b682 W _ZThn8_N5boost16exception_detail39current_exception_std_exception_wrapperISt9bad_allocED1Ev
00000000002984c0 V _ZTI6Ziscky
00000000002986c0 V _ZTIN5boost10error_infoINS_27tag_original_exception_typeEPKSt9type_infoEE
0000000000298740 V _ZTIN5boost10lock_errorE
00000000002985b0 V _ZTIN5boost12future_errorE
0000000000298510 V _ZTIN5boost13promise_movedE
0000000000298570 V _ZTIN5boost14broken_promiseE
0000000000298760 V _ZTIN5boost15condition_errorE
0000000000298680 V _ZTIN5boost16exception_detail10bad_alloc_E
00000000002987d0 V _ZTIN5boost16exception_detail10clone_baseE
00000000002982a0 V _ZTIN5boost16exception_detail10clone_implINS0_10bad_alloc_EEE
0000000000298260 V _ZTIN5boost16exception_detail10clone_implINS0_14bad_exception_EEE
00000000002983a0 V _ZTIN5boost16exception_detail10clone_implINS0_19error_info_injectorINS_10lock_errorEEEEE
0000000000297da0 V _ZTIN5boost16exception_detail10clone_implINS0_19error_info_injectorINS_13promise_movedEEEEE
0000000000298320 V _ZTIN5boost16exception_detail10clone_implINS0_19error_info_injectorINS_15condition_errorEEEEE
0000000000297900 V _ZTIN5boost16exception_detail10clone_implINS0_19error_info_injectorINS_17bad_function_callEEEEE
0000000000297880 V _ZTIN5boost16exception_detail10clone_implINS0_19error_info_injectorINS_20future_uninitializedEEEEE
0000000000298420 V _ZTIN5boost16exception_detail10clone_implINS0_19error_info_injectorINS_21thread_resource_errorEEEEE
0000000000297d20 V _ZTIN5boost16exception_detail10clone_implINS0_19error_info_injectorINS_24future_already_retrievedEEEEE
0000000000297e60 V _ZTIN5boost16exception_detail10clone_implINS0_19error_info_injectorINS_25promise_already_satisfiedEEEEE
0000000000297ac0 V _ZTIN5boost16exception_detail10clone_implINS0_39current_exception_std_exception_wrapperINSt8ios_base7failureEEEEE
00000000002979c0 V _ZTIN5boost16exception_detail10clone_implINS0_39current_exception_std_exception_wrapperISt10bad_typeidEEEE
0000000000297bc0 V _ZTIN5boost16exception_detail10clone_implINS0_39current_exception_std_exception_wrapperISt11logic_errorEEEE
0000000000297b80 V _ZTIN5boost16exception_detail10clone_implINS0_39current_exception_std_exception_wrapperISt11range_errorEEEE
0000000000297cc0 V _ZTIN5boost16exception_detail10clone_implINS0_39current_exception_std_exception_wrapperISt12domain_errorEEEE
0000000000297c40 V _ZTIN5boost16exception_detail10clone_implINS0_39current_exception_std_exception_wrapperISt12length_errorEEEE
0000000000297c00 V _ZTIN5boost16exception_detail10clone_implINS0_39current_exception_std_exception_wrapperISt12out_of_rangeEEEE
0000000000297980 V _ZTIN5boost16exception_detail10clone_implINS0_39current_exception_std_exception_wrapperISt13bad_exceptionEEEE
0000000000297a80 V _ZTIN5boost16exception_detail10clone_implINS0_39current_exception_std_exception_wrapperISt13runtime_errorEEEE
0000000000297b40 V _ZTIN5boost16exception_detail10clone_implINS0_39current_exception_std_exception_wrapperISt14overflow_errorEEEE
0000000000297b00 V _ZTIN5boost16exception_detail10clone_implINS0_39current_exception_std_exception_wrapperISt15underflow_errorEEEE
0000000000297c80 V _ZTIN5boost16exception_detail10clone_implINS0_39current_exception_std_exception_wrapperISt16invalid_argumentEEEE
0000000000297a00 V _ZTIN5boost16exception_detail10clone_implINS0_39current_exception_std_exception_wrapperISt8bad_castEEEE
0000000000297a40 V _ZTIN5boost16exception_detail10clone_implINS0_39current_exception_std_exception_wrapperISt9bad_allocEEEE
0000000000297e20 V _ZTIN5boost16exception_detail10clone_implINS_14broken_promiseEEE
00000000002982e0 V _ZTIN5boost16exception_detail10clone_implINS_17unknown_exceptionEEE
0000000000298640 V _ZTIN5boost16exception_detail14bad_exception_E
0000000000298700 V _ZTIN5boost16exception_detail15error_info_baseE
00000000002983e0 V _ZTIN5boost16exception_detail19error_info_injectorINS_10lock_errorEEE
0000000000297de0 V _ZTIN5boost16exception_detail19error_info_injectorINS_13promise_movedEEE
0000000000298360 V _ZTIN5boost16exception_detail19error_info_injectorINS_15condition_errorEEE
0000000000297940 V _ZTIN5boost16exception_detail19error_info_injectorINS_17bad_function_callEEE
00000000002978c0 V _ZTIN5boost16exception_detail19error_info_injectorINS_20future_uninitializedEEE
0000000000298460 V _ZTIN5boost16exception_detail19error_info_injectorINS_21thread_resource_errorEEE
0000000000297d60 V _ZTIN5boost16exception_detail19error_info_injectorINS_24future_already_retrievedEEE
0000000000297ea0 V _ZTIN5boost16exception_detail19error_info_injectorINS_25promise_already_satisfiedEEE
00000000002987f0 V _ZTIN5boost16exception_detail20error_info_containerE
00000000002986e0 V _ZTIN5boost16exception_detail25error_info_container_implE
0000000000298020 V _ZTIN5boost16exception_detail39current_exception_std_exception_wrapperINSt8ios_base7failureEEE
0000000000297f20 V _ZTIN5boost16exception_detail39current_exception_std_exception_wrapperISt10bad_typeidEE
0000000000298120 V _ZTIN5boost16exception_detail39current_exception_std_exception_wrapperISt11logic_errorEE
00000000002980e0 V _ZTIN5boost16exception_detail39current_exception_std_exception_wrapperISt11range_errorEE
0000000000298220 V _ZTIN5boost16exception_detail39current_exception_std_exception_wrapperISt12domain_errorEE
00000000002981a0 V _ZTIN5boost16exception_detail39current_exception_std_exception_wrapperISt12length_errorEE
0000000000298160 V _ZTIN5boost16exception_detail39current_exception_std_exception_wrapperISt12out_of_rangeEE
0000000000297ee0 V _ZTIN5boost16exception_detail39current_exception_std_exception_wrapperISt13bad_exceptionEE
0000000000297fe0 V _ZTIN5boost16exception_detail39current_exception_std_exception_wrapperISt13runtime_errorEE
00000000002980a0 V _ZTIN5boost16exception_detail39current_exception_std_exception_wrapperISt14overflow_errorEE
0000000000298060 V _ZTIN5boost16exception_detail39current_exception_std_exception_wrapperISt15underflow_errorEE
00000000002981e0 V _ZTIN5boost16exception_detail39current_exception_std_exception_wrapperISt16invalid_argumentEE
0000000000297f60 V _ZTIN5boost16exception_detail39current_exception_std_exception_wrapperISt8bad_castEE
0000000000297fa0 V _ZTIN5boost16exception_detail39current_exception_std_exception_wrapperISt9bad_allocEE
0000000000298780 V _ZTIN5boost16thread_exceptionE
00000000002985d0 V _ZTIN5boost17bad_function_callE
0000000000298600 V _ZTIN5boost17unknown_exceptionE
0000000000298710 V _ZTIN5boost18thread_interruptedE
0000000000298590 V _ZTIN5boost20future_uninitializedE
0000000000298720 V _ZTIN5boost21thread_resource_errorE
0000000000298800 V _ZTIN5boost23enable_shared_from_thisINS_6detail17shared_state_baseEEE
0000000000298550 V _ZTIN5boost24future_already_retrievedE
0000000000298530 V _ZTIN5boost25promise_already_satisfiedE
0000000000297820 V _ZTIN5boost6detail11thread_dataINS_3_bi6bind_tISt6vectorISsSaISsEENS_4_mfi3mf6IS6_6ZisckyS6_S6_S6_SsbRNS_7promiseIS6_EEEENS2_5list7INS2_5valueIPS9_EENSF_IS6_EESI_SI_NSF_ISsEENSF_IbEENS_17reference_wrapperISB_EEEEEEEE
0000000000297840 V _ZTIN5boost6detail11thread_dataINS_3_bi6bind_tIvNS_4_mfi3mf6ISt6vectorISsSaISsEE6ZisckyS8_S8_S8_SsbRNS_7promiseIS8_EEEENS2_5list7INS2_5valueIPS9_EENSF_IS8_EESI_SI_NSF_ISsEENSF_IbEENS_17reference_wrapperISB_EEEEEEEE
0000000000297d00 V _ZTIN5boost6detail12shared_stateISt6vectorISsSaISsEEEE
00000000002987c0 V _ZTIN5boost6detail15sp_counted_baseE
                 U _ZTIN5boost6detail16thread_data_baseE
00000000002984e0 V _ZTIN5boost6detail17shared_state_baseE
0000000000297860 V _ZTIN5boost6detail17sp_counted_impl_pIKNS_16exception_detail10clone_baseEEE
0000000000297780 V _ZTIN5boost6detail17sp_counted_impl_pINS0_11thread_dataINS_3_bi6bind_tISt6vectorISsSaISsEENS_4_mfi3mf6IS7_6ZisckyS7_S7_S7_SsbRNS_7promiseIS7_EEEENS3_5list7INS3_5valueIPSA_EENSG_IS7_EESJ_SJ_NSG_ISsEENSG_IbEENS_17reference_wrapperISC_EEEEEEEEEE
00000000002977a0 V _ZTIN5boost6detail17sp_counted_impl_pINS0_11thread_dataINS_3_bi6bind_tIvNS_4_mfi3mf6ISt6vectorISsSaISsEE6ZisckyS9_S9_S9_SsbRNS_7promiseIS9_EEEENS3_5list7INS3_5valueIPSA_EENSG_IS9_EESJ_SJ_NSG_ISsEENSG_IbEENS_17reference_wrapperISC_EEEEEEEEEE
00000000002977c0 V _ZTIN5boost6detail17sp_counted_impl_pINS0_12shared_stateISt6vectorISsSaISsEEEEEE
0000000000297760 V _ZTIN5boost6detail17sp_counted_impl_pINS_10error_infoINS_27tag_original_exception_typeEPKSt9type_infoEEEE
0000000000297800 V _ZTIN5boost6detail17sp_counted_impl_pINS_16exception_detail10clone_implINS2_10bad_alloc_EEEEE
00000000002977e0 V _ZTIN5boost6detail17sp_counted_impl_pINS_16exception_detail10clone_implINS2_14bad_exception_EEEEE
00000000002987a0 V _ZTIN5boost6system12system_errorE
00000000002987e0 V _ZTIN5boost9exceptionE
                 U _ZTINSt8ios_base7failureE
00000000002984a0 V _ZTIPSt9exception
                 U _ZTISt10bad_typeid
                 U _ZTISt11logic_error
                 U _ZTISt11range_error
                 U _ZTISt12domain_error
                 U _ZTISt12length_error
                 U _ZTISt12out_of_range
                 U _ZTISt13bad_exception
                 U _ZTISt13runtime_error
                 U _ZTISt14overflow_error
                 U _ZTISt15underflow_error
                 U _ZTISt16invalid_argument
                 U _ZTISt8bad_cast
                 U _ZTISt9bad_alloc
                 U _ZTISt9exception
000000000008181b V _ZTS6Ziscky
0000000000081a40 V _ZTSN5boost10error_infoINS_27tag_original_exception_typeEPKSt9type_infoEE
0000000000081b60 V _ZTSN5boost10lock_errorE
0000000000081950 V _ZTSN5boost12future_errorE
0000000000081870 V _ZTSN5boost13promise_movedE
0000000000081910 V _ZTSN5boost14broken_promiseE
0000000000081b80 V _ZTSN5boost15condition_errorE
0000000000081a00 V _ZTSN5boost16exception_detail10bad_alloc_E
0000000000081c20 V _ZTSN5boost16exception_detail10clone_baseE
0000000000081560 V _ZTSN5boost16exception_detail10clone_implINS0_10bad_alloc_EEE
0000000000081520 V _ZTSN5boost16exception_detail10clone_implINS0_14bad_exception_EEE
00000000000816a0 V _ZTSN5boost16exception_detail10clone_implINS0_19error_info_injectorINS_10lock_errorEEEEE
0000000000080e00 V _ZTSN5boost16exception_detail10clone_implINS0_19error_info_injectorINS_13promise_movedEEEEE
00000000000815e0 V _ZTSN5boost16exception_detail10clone_implINS0_19error_info_injectorINS_15condition_errorEEEEE
0000000000080520 V _ZTSN5boost16exception_detail10clone_implINS0_19error_info_injectorINS_17bad_function_callEEEEE
0000000000080460 V _ZTSN5boost16exception_detail10clone_implINS0_19error_info_injectorINS_20future_uninitializedEEEEE
0000000000081760 V _ZTSN5boost16exception_detail10clone_implINS0_19error_info_injectorINS_21thread_resource_errorEEEEE
0000000000080d20 V _ZTSN5boost16exception_detail10clone_implINS0_19error_info_injectorINS_24future_already_retrievedEEEEE
0000000000080f00 V _ZTSN5boost16exception_detail10clone_implINS0_19error_info_injectorINS_25promise_already_satisfiedEEEEE
0000000000080860 V _ZTSN5boost16exception_detail10clone_implINS0_39current_exception_std_exception_wrapperINSt8ios_base7failureEEEEE
0000000000080660 V _ZTSN5boost16exception_detail10clone_implINS0_39current_exception_std_exception_wrapperISt10bad_typeidEEEE
0000000000080a60 V _ZTSN5boost16exception_detail10clone_implINS0_39current_exception_std_exception_wrapperISt11logic_errorEEEE
00000000000809e0 V _ZTSN5boost16exception_detail10clone_implINS0_39current_exception_std_exception_wrapperISt11range_errorEEEE
0000000000080c60 V _ZTSN5boost16exception_detail10clone_implINS0_39current_exception_std_exception_wrapperISt12domain_errorEEEE
0000000000080b60 V _ZTSN5boost16exception_detail10clone_implINS0_39current_exception_std_exception_wrapperISt12length_errorEEEE
0000000000080ae0 V _ZTSN5boost16exception_detail10clone_implINS0_39current_exception_std_exception_wrapperISt12out_of_rangeEEEE
00000000000805e0 V _ZTSN5boost16exception_detail10clone_implINS0_39current_exception_std_exception_wrapperISt13bad_exceptionEEEE
00000000000807e0 V _ZTSN5boost16exception_detail10clone_implINS0_39current_exception_std_exception_wrapperISt13runtime_errorEEEE
0000000000080960 V _ZTSN5boost16exception_detail10clone_implINS0_39current_exception_std_exception_wrapperISt14overflow_errorEEEE
00000000000808e0 V _ZTSN5boost16exception_detail10clone_implINS0_39current_exception_std_exception_wrapperISt15underflow_errorEEEE
0000000000080be0 V _ZTSN5boost16exception_detail10clone_implINS0_39current_exception_std_exception_wrapperISt16invalid_argumentEEEE
00000000000806e0 V _ZTSN5boost16exception_detail10clone_implINS0_39current_exception_std_exception_wrapperISt8bad_castEEEE
0000000000080760 V _ZTSN5boost16exception_detail10clone_implINS0_39current_exception_std_exception_wrapperISt9bad_allocEEEE
0000000000080ec0 V _ZTSN5boost16exception_detail10clone_implINS_14broken_promiseEEE
00000000000815a0 V _ZTSN5boost16exception_detail10clone_implINS_17unknown_exceptionEEE
00000000000819c0 V _ZTSN5boost16exception_detail14bad_exception_E
0000000000081ae0 V _ZTSN5boost16exception_detail15error_info_baseE
0000000000081700 V _ZTSN5boost16exception_detail19error_info_injectorINS_10lock_errorEEE
0000000000080e60 V _ZTSN5boost16exception_detail19error_info_injectorINS_13promise_movedEEE
0000000000081640 V _ZTSN5boost16exception_detail19error_info_injectorINS_15condition_errorEEE
0000000000080580 V _ZTSN5boost16exception_detail19error_info_injectorINS_17bad_function_callEEE
00000000000804c0 V _ZTSN5boost16exception_detail19error_info_injectorINS_20future_uninitializedEEE
00000000000817c0 V _ZTSN5boost16exception_detail19error_info_injectorINS_21thread_resource_errorEEE
0000000000080da0 V _ZTSN5boost16exception_detail19error_info_injectorINS_24future_already_retrievedEEE
0000000000080f80 V _ZTSN5boost16exception_detail19error_info_injectorINS_25promise_already_satisfiedEEE
0000000000081c80 V _ZTSN5boost16exception_detail20error_info_containerE
0000000000081aa0 V _ZTSN5boost16exception_detail25error_info_container_implE
00000000000811c0 V _ZTSN5boost16exception_detail39current_exception_std_exception_wrapperINSt8ios_base7failureEEE
0000000000081040 V _ZTSN5boost16exception_detail39current_exception_std_exception_wrapperISt10bad_typeidEE
0000000000081340 V _ZTSN5boost16exception_detail39current_exception_std_exception_wrapperISt11logic_errorEE
00000000000812e0 V _ZTSN5boost16exception_detail39current_exception_std_exception_wrapperISt11range_errorEE
00000000000814c0 V _ZTSN5boost16exception_detail39current_exception_std_exception_wrapperISt12domain_errorEE
0000000000081400 V _ZTSN5boost16exception_detail39current_exception_std_exception_wrapperISt12length_errorEE
00000000000813a0 V _ZTSN5boost16exception_detail39current_exception_std_exception_wrapperISt12out_of_rangeEE
0000000000080fe0 V _ZTSN5boost16exception_detail39current_exception_std_exception_wrapperISt13bad_exceptionEE
0000000000081160 V _ZTSN5boost16exception_detail39current_exception_std_exception_wrapperISt13runtime_errorEE
0000000000081280 V _ZTSN5boost16exception_detail39current_exception_std_exception_wrapperISt14overflow_errorEE
0000000000081220 V _ZTSN5boost16exception_detail39current_exception_std_exception_wrapperISt15underflow_errorEE
0000000000081460 V _ZTSN5boost16exception_detail39current_exception_std_exception_wrapperISt16invalid_argumentEE
00000000000810a0 V _ZTSN5boost16exception_detail39current_exception_std_exception_wrapperISt8bad_castEE
0000000000081100 V _ZTSN5boost16exception_detail39current_exception_std_exception_wrapperISt9bad_allocEE
0000000000081ba0 V _ZTSN5boost16thread_exceptionE
0000000000081970 V _ZTSN5boost17bad_function_callE
0000000000081990 V _ZTSN5boost17unknown_exceptionE
0000000000081b10 V _ZTSN5boost18thread_interruptedE
0000000000081930 V _ZTSN5boost20future_uninitializedE
0000000000081b40 V _ZTSN5boost21thread_resource_errorE
0000000000081cc0 V _ZTSN5boost23enable_shared_from_thisINS_6detail17shared_state_baseEEE
00000000000818e0 V _ZTSN5boost24future_already_retrievedE
00000000000818a0 V _ZTSN5boost25promise_already_satisfiedE
0000000000080240 V _ZTSN5boost6detail11thread_dataINS_3_bi6bind_tISt6vectorISsSaISsEENS_4_mfi3mf6IS6_6ZisckyS6_S6_S6_SsbRNS_7promiseIS6_EEEENS2_5list7INS2_5valueIPS9_EENSF_IS6_EESI_SI_NSF_ISsEENSF_IbEENS_17reference_wrapperISB_EEEEEEEE
0000000000080320 V _ZTSN5boost6detail11thread_dataINS_3_bi6bind_tIvNS_4_mfi3mf6ISt6vectorISsSaISsEE6ZisckyS8_S8_S8_SsbRNS_7promiseIS8_EEEENS2_5list7INS2_5valueIPS9_EENSF_IS8_EESI_SI_NSF_ISsEENSF_IbEENS_17reference_wrapperISB_EEEEEEEE
0000000000080ce0 V _ZTSN5boost6detail12shared_stateISt6vectorISsSaISsEEEE
0000000000081be0 V _ZTSN5boost6detail15sp_counted_baseE
0000000000081840 V _ZTSN5boost6detail17shared_state_baseE
0000000000080400 V _ZTSN5boost6detail17sp_counted_impl_pIKNS_16exception_detail10clone_baseEEE
000000000007ff20 V _ZTSN5boost6detail17sp_counted_impl_pINS0_11thread_dataINS_3_bi6bind_tISt6vectorISsSaISsEENS_4_mfi3mf6IS7_6ZisckyS7_S7_S7_SsbRNS_7promiseIS7_EEEENS3_5list7INS3_5valueIPSA_EENSG_IS7_EESJ_SJ_NSG_ISsEENSG_IbEENS_17reference_wrapperISC_EEEEEEEEEE
0000000000080020 V _ZTSN5boost6detail17sp_counted_impl_pINS0_11thread_dataINS_3_bi6bind_tIvNS_4_mfi3mf6ISt6vectorISsSaISsEE6ZisckyS9_S9_S9_SsbRNS_7promiseIS9_EEEENS3_5list7INS3_5valueIPSA_EENSG_IS9_EESJ_SJ_NSG_ISsEENSG_IbEENS_17reference_wrapperISC_EEEEEEEEEE
0000000000080120 V _ZTSN5boost6detail17sp_counted_impl_pINS0_12shared_stateISt6vectorISsSaISsEEEEEE
000000000007fea0 V _ZTSN5boost6detail17sp_counted_impl_pINS_10error_infoINS_27tag_original_exception_typeEPKSt9type_infoEEEE
00000000000801e0 V _ZTSN5boost6detail17sp_counted_impl_pINS_16exception_detail10clone_implINS2_10bad_alloc_EEEEE
0000000000080180 V _ZTSN5boost6detail17sp_counted_impl_pINS_16exception_detail10clone_implINS2_14bad_exception_EEEEE
0000000000081bc0 V _ZTSN5boost6system12system_errorE
0000000000081c50 V _ZTSN5boost9exceptionE
000000000008180d V _ZTSPSt9exception
0000000000296d10 V _ZTTN5boost16exception_detail10clone_implINS0_10bad_alloc_EEE
0000000000296c50 V _ZTTN5boost16exception_detail10clone_implINS0_14bad_exception_EEE
0000000000296fb0 V _ZTTN5boost16exception_detail10clone_implINS0_19error_info_injectorINS_10lock_errorEEEEE
0000000000296430 V _ZTTN5boost16exception_detail10clone_implINS0_19error_info_injectorINS_13promise_movedEEEEE
0000000000296e90 V _ZTTN5boost16exception_detail10clone_implINS0_19error_info_injectorINS_15condition_errorEEEEE
0000000000295710 V _ZTTN5boost16exception_detail10clone_implINS0_19error_info_injectorINS_17bad_function_callEEEEE
00000000002955f0 V _ZTTN5boost16exception_detail10clone_implINS0_19error_info_injectorINS_20future_uninitializedEEEEE
00000000002970d0 V _ZTTN5boost16exception_detail10clone_implINS0_19error_info_injectorINS_21thread_resource_errorEEEEE
0000000000296310 V _ZTTN5boost16exception_detail10clone_implINS0_19error_info_injectorINS_24future_already_retrievedEEEEE
00000000002965f0 V _ZTTN5boost16exception_detail10clone_implINS0_19error_info_injectorINS_25promise_already_satisfiedEEEEE
0000000000295bf0 V _ZTTN5boost16exception_detail10clone_implINS0_39current_exception_std_exception_wrapperINSt8ios_base7failureEEEEE
00000000002958f0 V _ZTTN5boost16exception_detail10clone_implINS0_39current_exception_std_exception_wrapperISt10bad_typeidEEEE
0000000000295ef0 V _ZTTN5boost16exception_detail10clone_implINS0_39current_exception_std_exception_wrapperISt11logic_errorEEEE
0000000000295e30 V _ZTTN5boost16exception_detail10clone_implINS0_39current_exception_std_exception_wrapperISt11range_errorEEEE
00000000002961f0 V _ZTTN5boost16exception_detail10clone_implINS0_39current_exception_std_exception_wrapperISt12domain_errorEEEE
0000000000296070 V _ZTTN5boost16exception_detail10clone_implINS0_39current_exception_std_exception_wrapperISt12length_errorEEEE
0000000000295fb0 V _ZTTN5boost16exception_detail10clone_implINS0_39current_exception_std_exception_wrapperISt12out_of_rangeEEEE
0000000000295830 V _ZTTN5boost16exception_detail10clone_implINS0_39current_exception_std_exception_wrapperISt13bad_exceptionEEEE
0000000000295b30 V _ZTTN5boost16exception_detail10clone_implINS0_39current_exception_std_exception_wrapperISt13runtime_errorEEEE
0000000000295d70 V _ZTTN5boost16exception_detail10clone_implINS0_39current_exception_std_exception_wrapperISt14overflow_errorEEEE
0000000000295cb0 V _ZTTN5boost16exception_detail10clone_implINS0_39current_exception_std_exception_wrapperISt15underflow_errorEEEE
0000000000296130 V _ZTTN5boost16exception_detail10clone_implINS0_39current_exception_std_exception_wrapperISt16invalid_argumentEEEE
00000000002959b0 V _ZTTN5boost16exception_detail10clone_implINS0_39current_exception_std_exception_wrapperISt8bad_castEEEE
0000000000295a70 V _ZTTN5boost16exception_detail10clone_implINS0_39current_exception_std_exception_wrapperISt9bad_allocEEEE
0000000000296530 V _ZTTN5boost16exception_detail10clone_implINS_14broken_promiseEEE
0000000000296dd0 V _ZTTN5boost16exception_detail10clone_implINS_17unknown_exceptionEEE
0000000000079e28 W _ZTv0_n24_NK5boost16exception_detail10clone_implINS0_10bad_alloc_EE5cloneEv
0000000000079d4c W _ZTv0_n24_NK5boost16exception_detail10clone_implINS0_14bad_exception_EE5cloneEv
000000000007a0bc W _ZTv0_n24_NK5boost16exception_detail10clone_implINS0_19error_info_injectorINS_10lock_errorEEEE5cloneEv
0000000000079ab8 W _ZTv0_n24_NK5boost16exception_detail10clone_implINS0_19error_info_injectorINS_13promise_movedEEEE5cloneEv
0000000000079fe0 W _ZTv0_n24_NK5boost16exception_detail10clone_implINS0_19error_info_injectorINS_15condition_errorEEEE5cloneEv
0000000000078c74 W _ZTv0_n24_NK5boost16exception_detail10clone_implINS0_19error_info_injectorINS_17bad_function_callEEEE5cloneEv
0000000000078b98 W _ZTv0_n24_NK5boost16exception_detail10clone_implINS0_19error_info_injectorINS_20future_uninitializedEEEE5cloneEv
000000000007a198 W _ZTv0_n24_NK5boost16exception_detail10clone_implINS0_19error_info_injectorINS_21thread_resource_errorEEEE5cloneEv
00000000000799dc W _ZTv0_n24_NK5boost16exception_detail10clone_implINS0_19error_info_injectorINS_24future_already_retrievedEEEE5cloneEv
0000000000079c70 W _ZTv0_n24_NK5boost16exception_detail10clone_implINS0_19error_info_injectorINS_25promise_already_satisfiedEEEE5cloneEv
000000000007919c W _ZTv0_n24_NK5boost16exception_detail10clone_implINS0_39current_exception_std_exception_wrapperINSt8ios_base7failureEEEE5cloneEv
0000000000078e2c W _ZTv0_n24_NK5boost16exception_detail10clone_implINS0_39current_exception_std_exception_wrapperISt10bad_typeidEEE5cloneEv
000000000007950c W _ZTv0_n24_NK5boost16exception_detail10clone_implINS0_39current_exception_std_exception_wrapperISt11logic_errorEEE5cloneEv
0000000000079430 W _ZTv0_n24_NK5boost16exception_detail10clone_implINS0_39current_exception_std_exception_wrapperISt11range_errorEEE5cloneEv
000000000007987c W _ZTv0_n24_NK5boost16exception_detail10clone_implINS0_39current_exception_std_exception_wrapperISt12domain_errorEEE5cloneEv
00000000000796c4 W _ZTv0_n24_NK5boost16exception_detail10clone_implINS0_39current_exception_std_exception_wrapperISt12length_errorEEE5cloneEv
00000000000795e8 W _ZTv0_n24_NK5boost16exception_detail10clone_implINS0_39current_exception_std_exception_wrapperISt12out_of_rangeEEE5cloneEv
0000000000078d50 W _ZTv0_n24_NK5boost16exception_detail10clone_implINS0_39current_exception_std_exception_wrapperISt13bad_exceptionEEE5cloneEv
00000000000790c0 W _ZTv0_n24_NK5boost16exception_detail10clone_implINS0_39current_exception_std_exception_wrapperISt13runtime_errorEEE5cloneEv
0000000000079354 W _ZTv0_n24_NK5boost16exception_detail10clone_implINS0_39current_exception_std_exception_wrapperISt14overflow_errorEEE5cloneEv
0000000000079278 W _ZTv0_n24_NK5boost16exception_detail10clone_implINS0_39current_exception_std_exception_wrapperISt15underflow_errorEEE5cloneEv
00000000000797a0 W _ZTv0_n24_NK5boost16exception_detail10clone_implINS0_39current_exception_std_exception_wrapperISt16invalid_argumentEEE5cloneEv
0000000000078f08 W _ZTv0_n24_NK5boost16exception_detail10clone_implINS0_39current_exception_std_exception_wrapperISt8bad_castEEE5cloneEv
0000000000078fe4 W _ZTv0_n24_NK5boost16exception_detail10clone_implINS0_39current_exception_std_exception_wrapperISt9bad_allocEEE5cloneEv
0000000000079b94 W _ZTv0_n24_NK5boost16exception_detail10clone_implINS_14broken_promiseEE5cloneEv
0000000000079f04 W _ZTv0_n24_NK5boost16exception_detail10clone_implINS_17unknown_exceptionEE5cloneEv
0000000000079e8f W _ZTv0_n32_NK5boost16exception_detail10clone_implINS0_10bad_alloc_EE7rethrowEv
0000000000079db3 W _ZTv0_n32_NK5boost16exception_detail10clone_implINS0_14bad_exception_EE7rethrowEv
000000000007a123 W _ZTv0_n32_NK5boost16exception_detail10clone_implINS0_19error_info_injectorINS_10lock_errorEEEE7rethrowEv
0000000000079b1f W _ZTv0_n32_NK5boost16exception_detail10clone_implINS0_19error_info_injectorINS_13promise_movedEEEE7rethrowEv
000000000007a047 W _ZTv0_n32_NK5boost16exception_detail10clone_implINS0_19error_info_injectorINS_15condition_errorEEEE7rethrowEv
0000000000078cdb W _ZTv0_n32_NK5boost16exception_detail10clone_implINS0_19error_info_injectorINS_17bad_function_callEEEE7rethrowEv
0000000000078bff W _ZTv0_n32_NK5boost16exception_detail10clone_implINS0_19error_info_injectorINS_20future_uninitializedEEEE7rethrowEv
000000000007a1ff W _ZTv0_n32_NK5boost16exception_detail10clone_implINS0_19error_info_injectorINS_21thread_resource_errorEEEE7rethrowEv
0000000000079a43 W _ZTv0_n32_NK5boost16exception_detail10clone_implINS0_19error_info_injectorINS_24future_already_retrievedEEEE7rethrowEv
0000000000079cd7 W _ZTv0_n32_NK5boost16exception_detail10clone_implINS0_19error_info_injectorINS_25promise_already_satisfiedEEEE7rethrowEv
0000000000079203 W _ZTv0_n32_NK5boost16exception_detail10clone_implINS0_39current_exception_std_exception_wrapperINSt8ios_base7failureEEEE7rethrowEv
0000000000078e93 W _ZTv0_n32_NK5boost16exception_detail10clone_implINS0_39current_exception_std_exception_wrapperISt10bad_typeidEEE7rethrowEv
0000000000079573 W _ZTv0_n32_NK5boost16exception_detail10clone_implINS0_39current_exception_std_exception_wrapperISt11logic_errorEEE7rethrowEv
0000000000079497 W _ZTv0_n32_NK5boost16exception_detail10clone_implINS0_39current_exception_std_exception_wrapperISt11range_errorEEE7rethrowEv
00000000000798e3 W _ZTv0_n32_NK5boost16exception_detail10clone_implINS0_39current_exception_std_exception_wrapperISt12domain_errorEEE7rethrowEv
000000000007972b W _ZTv0_n32_NK5boost16exception_detail10clone_implINS0_39current_exception_std_exception_wrapperISt12length_errorEEE7rethrowEv
000000000007964f W _ZTv0_n32_NK5boost16exception_detail10clone_implINS0_39current_exception_std_exception_wrapperISt12out_of_rangeEEE7rethrowEv
0000000000078db7 W _ZTv0_n32_NK5boost16exception_detail10clone_implINS0_39current_exception_std_exception_wrapperISt13bad_exceptionEEE7rethrowEv
0000000000079127 W _ZTv0_n32_NK5boost16exception_detail10clone_implINS0_39current_exception_std_exception_wrapperISt13runtime_errorEEE7rethrowEv
00000000000793bb W _ZTv0_n32_NK5boost16exception_detail10clone_implINS0_39current_exception_std_exception_wrapperISt14overflow_errorEEE7rethrowEv
00000000000792df W _ZTv0_n32_NK5boost16exception_detail10clone_implINS0_39current_exception_std_exception_wrapperISt15underflow_errorEEE7rethrowEv
0000000000079807 W _ZTv0_n32_NK5boost16exception_detail10clone_implINS0_39current_exception_std_exception_wrapperISt16invalid_argumentEEE7rethrowEv
0000000000078f6f W _ZTv0_n32_NK5boost16exception_detail10clone_implINS0_39current_exception_std_exception_wrapperISt8bad_castEEE7rethrowEv
000000000007904b W _ZTv0_n32_NK5boost16exception_detail10clone_implINS0_39current_exception_std_exception_wrapperISt9bad_allocEEE7rethrowEv
0000000000079bfb W _ZTv0_n32_NK5boost16exception_detail10clone_implINS_14broken_promiseEE7rethrowEv
0000000000079f6b W _ZTv0_n32_NK5boost16exception_detail10clone_implINS_17unknown_exceptionEE7rethrowEv
0000000000068802 W _ZTv0_n40_N5boost16exception_detail10clone_implINS0_10bad_alloc_EED0Ev
00000000000687c6 W _ZTv0_n40_N5boost16exception_detail10clone_implINS0_10bad_alloc_EED1Ev
0000000000068a98 W _ZTv0_n40_N5boost16exception_detail10clone_implINS0_14bad_exception_EED0Ev
0000000000068a5c W _ZTv0_n40_N5boost16exception_detail10clone_implINS0_14bad_exception_EED1Ev
000000000006788a W _ZTv0_n40_N5boost16exception_detail10clone_implINS0_19error_info_injectorINS_10lock_errorEEEED0Ev
000000000006784e W _ZTv0_n40_N5boost16exception_detail10clone_implINS0_19error_info_injectorINS_10lock_errorEEEED1Ev
000000000006cf0c W _ZTv0_n40_N5boost16exception_detail10clone_implINS0_19error_info_injectorINS_13promise_movedEEEED0Ev
000000000006ced0 W _ZTv0_n40_N5boost16exception_detail10clone_implINS0_19error_info_injectorINS_13promise_movedEEEED1Ev
0000000000067f6c W _ZTv0_n40_N5boost16exception_detail10clone_implINS0_19error_info_injectorINS_15condition_errorEEEED0Ev
0000000000067f30 W _ZTv0_n40_N5boost16exception_detail10clone_implINS0_19error_info_injectorINS_15condition_errorEEEED1Ev
0000000000071170 W _ZTv0_n40_N5boost16exception_detail10clone_implINS0_19error_info_injectorINS_17bad_function_callEEEED0Ev
0000000000071134 W _ZTv0_n40_N5boost16exception_detail10clone_implINS0_19error_info_injectorINS_17bad_function_callEEEED1Ev
00000000000720dc W _ZTv0_n40_N5boost16exception_detail10clone_implINS0_19error_info_injectorINS_20future_uninitializedEEEED0Ev
00000000000720a0 W _ZTv0_n40_N5boost16exception_detail10clone_implINS0_19error_info_injectorINS_20future_uninitializedEEEED1Ev
00000000000676c8 W _ZTv0_n40_N5boost16exception_detail10clone_implINS0_19error_info_injectorINS_21thread_resource_errorEEEED0Ev
000000000006768c W _ZTv0_n40_N5boost16exception_detail10clone_implINS0_19error_info_injectorINS_21thread_resource_errorEEEED1Ev
000000000006d0ce W _ZTv0_n40_N5boost16exception_detail10clone_implINS0_19error_info_injectorINS_24future_already_retrievedEEEED0Ev
000000000006d092 W _ZTv0_n40_N5boost16exception_detail10clone_implINS0_19error_info_injectorINS_24future_already_retrievedEEEED1Ev
000000000006cbc4 W _ZTv0_n40_N5boost16exception_detail10clone_implINS0_19error_info_injectorINS_25promise_already_satisfiedEEEED0Ev
000000000006cb88 W _ZTv0_n40_N5boost16exception_detail10clone_implINS0_19error_info_injectorINS_25promise_already_satisfiedEEEED1Ev
000000000007067e W _ZTv0_n40_N5boost16exception_detail10clone_implINS0_39current_exception_std_exception_wrapperINSt8ios_base7failureEEEED0Ev
0000000000070642 W _ZTv0_n40_N5boost16exception_detail10clone_implINS0_39current_exception_std_exception_wrapperINSt8ios_base7failureEEEED1Ev
0000000000070c4e W _ZTv0_n40_N5boost16exception_detail10clone_implINS0_39current_exception_std_exception_wrapperISt10bad_typeidEEED0Ev
0000000000070c12 W _ZTv0_n40_N5boost16exception_detail10clone_implINS0_39current_exception_std_exception_wrapperISt10bad_typeidEEED1Ev
00000000000700ae W _ZTv0_n40_N5boost16exception_detail10clone_implINS0_39current_exception_std_exception_wrapperISt11logic_errorEEED0Ev
0000000000070072 W _ZTv0_n40_N5boost16exception_detail10clone_implINS0_39current_exception_std_exception_wrapperISt11logic_errorEEED1Ev
0000000000070222 W _ZTv0_n40_N5boost16exception_detail10clone_implINS0_39current_exception_std_exception_wrapperISt11range_errorEEED0Ev
00000000000701e6 W _ZTv0_n40_N5boost16exception_detail10clone_implINS0_39current_exception_std_exception_wrapperISt11range_errorEEED1Ev
000000000006fade W _ZTv0_n40_N5boost16exception_detail10clone_implINS0_39current_exception_std_exception_wrapperISt12domain_errorEEED0Ev
000000000006faa2 W _ZTv0_n40_N5boost16exception_detail10clone_implINS0_39current_exception_std_exception_wrapperISt12domain_errorEEED1Ev
000000000006fdc6 W _ZTv0_n40_N5boost16exception_detail10clone_implINS0_39current_exception_std_exception_wrapperISt12length_errorEEED0Ev
000000000006fd8a W _ZTv0_n40_N5boost16exception_detail10clone_implINS0_39current_exception_std_exception_wrapperISt12length_errorEEED1Ev
000000000006ff3a W _ZTv0_n40_N5boost16exception_detail10clone_implINS0_39current_exception_std_exception_wrapperISt12out_of_rangeEEED0Ev
000000000006fefe W _ZTv0_n40_N5boost16exception_detail10clone_implINS0_39current_exception_std_exception_wrapperISt12out_of_rangeEEED1Ev
0000000000070dc2 W _ZTv0_n40_N5boost16exception_detail10clone_implINS0_39current_exception_std_exception_wrapperISt13bad_exceptionEEED0Ev
0000000000070d86 W _ZTv0_n40_N5boost16exception_detail10clone_implINS0_39current_exception_std_exception_wrapperISt13bad_exceptionEEED1Ev
00000000000707f2 W _ZTv0_n40_N5boost16exception_detail10clone_implINS0_39current_exception_std_exception_wrapperISt13runtime_errorEEED0Ev
00000000000707b6 W _ZTv0_n40_N5boost16exception_detail10clone_implINS0_39current_exception_std_exception_wrapperISt13runtime_errorEEED1Ev
0000000000070396 W _ZTv0_n40_N5boost16exception_detail10clone_implINS0_39current_exception_std_exception_wrapperISt14overflow_errorEEED0Ev
000000000007035a W _ZTv0_n40_N5boost16exception_detail10clone_implINS0_39current_exception_std_exception_wrapperISt14overflow_errorEEED1Ev
000000000007050a W _ZTv0_n40_N5boost16exception_detail10clone_implINS0_39current_exception_std_exception_wrapperISt15underflow_errorEEED0Ev
00000000000704ce W _ZTv0_n40_N5boost16exception_detail10clone_implINS0_39current_exception_std_exception_wrapperISt15underflow_errorEEED1Ev
000000000006fc52 W _ZTv0_n40_N5boost16exception_detail10clone_implINS0_39current_exception_std_exception_wrapperISt16invalid_argumentEEED0Ev
000000000006fc16 W _ZTv0_n40_N5boost16exception_detail10clone_implINS0_39current_exception_std_exception_wrapperISt16invalid_argumentEEED1Ev
0000000000070ada W _ZTv0_n40_N5boost16exception_detail10clone_implINS0_39current_exception_std_exception_wrapperISt8bad_castEEED0Ev
0000000000070a9e W _ZTv0_n40_N5boost16exception_detail10clone_implINS0_39current_exception_std_exception_wrapperISt8bad_castEEED1Ev
0000000000070966 W _ZTv0_n40_N5boost16exception_detail10clone_implINS0_39current_exception_std_exception_wrapperISt9bad_allocEEED0Ev
000000000007092a W _ZTv0_n40_N5boost16exception_detail10clone_implINS0_39current_exception_std_exception_wrapperISt9bad_allocEEED1Ev
000000000006cd50 W _ZTv0_n40_N5boost16exception_detail10clone_implINS_14broken_promiseEED0Ev
000000000006cd20 W _ZTv0_n40_N5boost16exception_detail10clone_implINS_14broken_promiseEED1Ev
00000000000685ea W _ZTv0_n40_N5boost16exception_detail10clone_implINS_17unknown_exceptionEED0Ev
00000000000685ae W _ZTv0_n40_N5boost16exception_detail10clone_implINS_17unknown_exceptionEED1Ev
0000000000297140 V _ZTV6Ziscky
                 U _ZTVN10__cxxabiv117__class_type_infoE
                 U _ZTVN10__cxxabiv119__pointer_type_infoE
                 U _ZTVN10__cxxabiv120__si_class_type_infoE
                 U _ZTVN10__cxxabiv121__vmi_class_type_infoE
0000000000297480 V _ZTVN5boost10error_infoINS_27tag_original_exception_typeEPKSt9type_infoEE
0000000000297580 V _ZTVN5boost10lock_errorE
00000000002972e0 V _ZTVN5boost12future_errorE
00000000002971a0 V _ZTVN5boost13promise_movedE
0000000000297260 V _ZTVN5boost14broken_promiseE
00000000002975c0 V _ZTVN5boost15condition_errorE
0000000000297420 V _ZTVN5boost16exception_detail10bad_alloc_E
00000000002976c0 V _ZTVN5boost16exception_detail10clone_baseE
0000000000296c60 V _ZTVN5boost16exception_detail10clone_implINS0_10bad_alloc_EEE
0000000000296ba0 V _ZTVN5boost16exception_detail10clone_implINS0_14bad_exception_EEE
0000000000296f00 V _ZTVN5boost16exception_detail10clone_implINS0_19error_info_injectorINS_10lock_errorEEEEE
0000000000296380 V _ZTVN5boost16exception_detail10clone_implINS0_19error_info_injectorINS_13promise_movedEEEEE
0000000000296de0 V _ZTVN5boost16exception_detail10clone_implINS0_19error_info_injectorINS_15condition_errorEEEEE
0000000000295660 V _ZTVN5boost16exception_detail10clone_implINS0_19error_info_injectorINS_17bad_function_callEEEEE
0000000000295540 V _ZTVN5boost16exception_detail10clone_implINS0_19error_info_injectorINS_20future_uninitializedEEEEE
0000000000297020 V _ZTVN5boost16exception_detail10clone_implINS0_19error_info_injectorINS_21thread_resource_errorEEEEE
0000000000296260 V _ZTVN5boost16exception_detail10clone_implINS0_19error_info_injectorINS_24future_already_retrievedEEEEE
0000000000296540 V _ZTVN5boost16exception_detail10clone_implINS0_19error_info_injectorINS_25promise_already_satisfiedEEEEE
0000000000295b40 V _ZTVN5boost16exception_detail10clone_implINS0_39current_exception_std_exception_wrapperINSt8ios_base7failureEEEEE
0000000000295840 V _ZTVN5boost16exception_detail10clone_implINS0_39current_exception_std_exception_wrapperISt10bad_typeidEEEE
0000000000295e40 V _ZTVN5boost16exception_detail10clone_implINS0_39current_exception_std_exception_wrapperISt11logic_errorEEEE
0000000000295d80 V _ZTVN5boost16exception_detail10clone_implINS0_39current_exception_std_exception_wrapperISt11range_errorEEEE
0000000000296140 V _ZTVN5boost16exception_detail10clone_implINS0_39current_exception_std_exception_wrapperISt12domain_errorEEEE
0000000000295fc0 V _ZTVN5boost16exception_detail10clone_implINS0_39current_exception_std_exception_wrapperISt12length_errorEEEE
0000000000295f00 V _ZTVN5boost16exception_detail10clone_implINS0_39current_exception_std_exception_wrapperISt12out_of_rangeEEEE
0000000000295780 V _ZTVN5boost16exception_detail10clone_implINS0_39current_exception_std_exception_wrapperISt13bad_exceptionEEEE
0000000000295a80 V _ZTVN5boost16exception_detail10clone_implINS0_39current_exception_std_exception_wrapperISt13runtime_errorEEEE
0000000000295cc0 V _ZTVN5boost16exception_detail10clone_implINS0_39current_exception_std_exception_wrapperISt14overflow_errorEEEE
0000000000295c00 V _ZTVN5boost16exception_detail10clone_implINS0_39current_exception_std_exception_wrapperISt15underflow_errorEEEE
0000000000296080 V _ZTVN5boost16exception_detail10clone_implINS0_39current_exception_std_exception_wrapperISt16invalid_argumentEEEE
0000000000295900 V _ZTVN5boost16exception_detail10clone_implINS0_39current_exception_std_exception_wrapperISt8bad_castEEEE
00000000002959c0 V _ZTVN5boost16exception_detail10clone_implINS0_39current_exception_std_exception_wrapperISt9bad_allocEEEE
00000000002964a0 V _ZTVN5boost16exception_detail10clone_implINS_14broken_promiseEEE
0000000000296d20 V _ZTVN5boost16exception_detail10clone_implINS_17unknown_exceptionEEE
00000000002973c0 V _ZTVN5boost16exception_detail14bad_exception_E
0000000000297500 V _ZTVN5boost16exception_detail15error_info_baseE
0000000000296fc0 V _ZTVN5boost16exception_detail19error_info_injectorINS_10lock_errorEEE
0000000000296440 V _ZTVN5boost16exception_detail19error_info_injectorINS_13promise_movedEEE
0000000000296ea0 V _ZTVN5boost16exception_detail19error_info_injectorINS_15condition_errorEEE
0000000000295720 V _ZTVN5boost16exception_detail19error_info_injectorINS_17bad_function_callEEE
0000000000295600 V _ZTVN5boost16exception_detail19error_info_injectorINS_20future_uninitializedEEE
00000000002970e0 V _ZTVN5boost16exception_detail19error_info_injectorINS_21thread_resource_errorEEE
0000000000296320 V _ZTVN5boost16exception_detail19error_info_injectorINS_24future_already_retrievedEEE
0000000000296600 V _ZTVN5boost16exception_detail19error_info_injectorINS_25promise_already_satisfiedEEE
0000000000297720 V _ZTVN5boost16exception_detail20error_info_containerE
00000000002974c0 V _ZTVN5boost16exception_detail25error_info_container_implE
0000000000296840 V _ZTVN5boost16exception_detail39current_exception_std_exception_wrapperINSt8ios_base7failureEEE
00000000002966c0 V _ZTVN5boost16exception_detail39current_exception_std_exception_wrapperISt10bad_typeidEE
00000000002969c0 V _ZTVN5boost16exception_detail39current_exception_std_exception_wrapperISt11logic_errorEE
0000000000296960 V _ZTVN5boost16exception_detail39current_exception_std_exception_wrapperISt11range_errorEE
0000000000296b40 V _ZTVN5boost16exception_detail39current_exception_std_exception_wrapperISt12domain_errorEE
0000000000296a80 V _ZTVN5boost16exception_detail39current_exception_std_exception_wrapperISt12length_errorEE
0000000000296a20 V _ZTVN5boost16exception_detail39current_exception_std_exception_wrapperISt12out_of_rangeEE
0000000000296660 V _ZTVN5boost16exception_detail39current_exception_std_exception_wrapperISt13bad_exceptionEE
00000000002967e0 V _ZTVN5boost16exception_detail39current_exception_std_exception_wrapperISt13runtime_errorEE
0000000000296900 V _ZTVN5boost16exception_detail39current_exception_std_exception_wrapperISt14overflow_errorEE
00000000002968a0 V _ZTVN5boost16exception_detail39current_exception_std_exception_wrapperISt15underflow_errorEE
0000000000296ae0 V _ZTVN5boost16exception_detail39current_exception_std_exception_wrapperISt16invalid_argumentEE
0000000000296720 V _ZTVN5boost16exception_detail39current_exception_std_exception_wrapperISt8bad_castEE
0000000000296780 V _ZTVN5boost16exception_detail39current_exception_std_exception_wrapperISt9bad_allocEE
0000000000297600 V _ZTVN5boost16thread_exceptionE
0000000000297320 V _ZTVN5boost17bad_function_callE
0000000000297360 V _ZTVN5boost17unknown_exceptionE
00000000002972a0 V _ZTVN5boost20future_uninitializedE
0000000000297540 V _ZTVN5boost21thread_resource_errorE
0000000000297220 V _ZTVN5boost24future_already_retrievedE
00000000002971e0 V _ZTVN5boost25promise_already_satisfiedE
0000000000295480 V _ZTVN5boost6detail11thread_dataINS_3_bi6bind_tISt6vectorISsSaISsEENS_4_mfi3mf6IS6_6ZisckyS6_S6_S6_SsbRNS_7promiseIS6_EEEENS2_5list7INS2_5valueIPS9_EENSF_IS6_EESI_SI_NSF_ISsEENSF_IbEENS_17reference_wrapperISB_EEEEEEEE
00000000002954c0 V _ZTVN5boost6detail11thread_dataINS_3_bi6bind_tIvNS_4_mfi3mf6ISt6vectorISsSaISsEE6ZisckyS8_S8_S8_SsbRNS_7promiseIS8_EEEENS2_5list7INS2_5valueIPS9_EENSF_IS8_EESI_SI_NSF_ISsEENSF_IbEENS_17reference_wrapperISB_EEEEEEEE
0000000000296200 V _ZTVN5boost6detail12shared_stateISt6vectorISsSaISsEEEE
0000000000297680 V _ZTVN5boost6detail15sp_counted_baseE
                 U _ZTVN5boost6detail16thread_data_baseE
0000000000297160 V _ZTVN5boost6detail17shared_state_baseE
0000000000295500 V _ZTVN5boost6detail17sp_counted_impl_pIKNS_16exception_detail10clone_baseEEE
0000000000295340 V _ZTVN5boost6detail17sp_counted_impl_pINS0_11thread_dataINS_3_bi6bind_tISt6vectorISsSaISsEENS_4_mfi3mf6IS7_6ZisckyS7_S7_S7_SsbRNS_7promiseIS7_EEEENS3_5list7INS3_5valueIPSA_EENSG_IS7_EESJ_SJ_NSG_ISsEENSG_IbEENS_17reference_wrapperISC_EEEEEEEEEE
0000000000295380 V _ZTVN5boost6detail17sp_counted_impl_pINS0_11thread_dataINS_3_bi6bind_tIvNS_4_mfi3mf6ISt6vectorISsSaISsEE6ZisckyS9_S9_S9_SsbRNS_7promiseIS9_EEEENS3_5list7INS3_5valueIPSA_EENSG_IS9_EESJ_SJ_NSG_ISsEENSG_IbEENS_17reference_wrapperISC_EEEEEEEEEE
00000000002953c0 V _ZTVN5boost6detail17sp_counted_impl_pINS0_12shared_stateISt6vectorISsSaISsEEEEEE
0000000000295300 V _ZTVN5boost6detail17sp_counted_impl_pINS_10error_infoINS_27tag_original_exception_typeEPKSt9type_infoEEEE
0000000000295440 V _ZTVN5boost6detail17sp_counted_impl_pINS_16exception_detail10clone_implINS2_10bad_alloc_EEEEE
0000000000295400 V _ZTVN5boost6detail17sp_counted_impl_pINS_16exception_detail10clone_implINS2_14bad_exception_EEEEE
0000000000297640 V _ZTVN5boost6system12system_errorE
0000000000297700 V _ZTVN5boost9exceptionE
                 U _ZTVNSt8ios_base7failureE
                 U _ZTVSt10bad_typeid
                 U _ZTVSt11logic_error
                 U _ZTVSt11range_error
                 U _ZTVSt12domain_error
                 U _ZTVSt12length_error
                 U _ZTVSt12out_of_range
                 U _ZTVSt13bad_exception
                 U _ZTVSt13runtime_error
                 U _ZTVSt14overflow_error
                 U _ZTVSt15underflow_error
                 U _ZTVSt16invalid_argument
                 U _ZTVSt8bad_cast
                 U _ZTVSt9bad_alloc
                 U _ZTVSt9exception
                 U _zval_copy_ctor_func
                 U zval_is_true
0000000000082210 r _ZZ13SWIG_PackDataE3hex
000000000029beec b _ZZ24SWIG_PropagateClientDataE8init_run
00000000002952e0 d _ZZL18__gthread_active_pvE20__gthread_active_ptr
00000000002952e8 d _ZZL18__gthread_active_pvE20__gthread_active_ptr
000000000007f880 r _ZZN5boost10scoped_ptrISt6vectorISsSaISsEEE5resetEPS3_E19__PRETTY_FUNCTION__
000000000007fa40 r _ZZN5boost16exception_detail22current_exception_implEvE19__PRETTY_FUNCTION__
000000000007faa0 r _ZZN5boost16exception_detail25error_info_container_impl3setERKNS_10shared_ptrINS0_15error_info_baseEEERKNS0_10type_info_EE19__PRETTY_FUNCTION__
000000000007fd20 r _ZZN5boost16exception_detail27get_static_exception_objectINS0_10bad_alloc_EEENS_13exception_ptrEvE19__PRETTY_FUNCTION__
0000000000082240 r _ZZN5boost16exception_detail27get_static_exception_objectINS0_10bad_alloc_EEENS_13exception_ptrEvE19__PRETTY_FUNCTION__
000000000029be70 u _ZZN5boost16exception_detail27get_static_exception_objectINS0_10bad_alloc_EEENS_13exception_ptrEvE2ep
000000000007fdc0 r _ZZN5boost16exception_detail27get_static_exception_objectINS0_14bad_exception_EEENS_13exception_ptrEvE19__PRETTY_FUNCTION__
00000000000822e0 r _ZZN5boost16exception_detail27get_static_exception_objectINS0_14bad_exception_EEENS_13exception_ptrEvE19__PRETTY_FUNCTION__
000000000029be80 u _ZZN5boost16exception_detail27get_static_exception_objectINS0_14bad_exception_EEENS_13exception_ptrEvE2ep
000000000007fa00 r _ZZN5boost17current_exceptionEvE19__PRETTY_FUNCTION__
000000000007f500 r _ZZN5boost17rethrow_exceptionERKNS_13exception_ptrEE19__PRETTY_FUNCTION__
000000000007f8e0 r _ZZN5boost18condition_variable10notify_allEvE19__PRETTY_FUNCTION__
000000000007f6a0 r _ZZN5boost18condition_variableC1EvE19__PRETTY_FUNCTION__
000000000007f6e0 r _ZZN5boost18condition_variableD1EvE19__PRETTY_FUNCTION__
000000000007f9c0 r _ZZN5boost22condition_variable_any10notify_allEvE19__PRETTY_FUNCTION__
000000000007f720 r _ZZN5boost5mutexD1EvE19__PRETTY_FUNCTION__
000000000007f460 r _ZZN5boost6detail20interruption_checkerC1EP15pthread_mutex_tP14pthread_cond_tE19__PRETTY_FUNCTION__
000000000007f4c0 r _ZZN5boost6detail20interruption_checkerD1EvE19__PRETTY_FUNCTION__
000000000007f980 r _ZZN5boost7pthread25pthread_mutex_scoped_lock6unlockEvE19__PRETTY_FUNCTION__
000000000007f920 r _ZZN5boost7pthread25pthread_mutex_scoped_lockC1EP15pthread_mutex_tE19__PRETTY_FUNCTION__
000000000007f640 r _ZZNK5boost10scoped_ptrISt6vectorISsSaISsEEEdeEvE19__PRETTY_FUNCTION__
000000000007f540 r _ZZNK5boost10shared_ptrIKNS_16exception_detail10clone_baseEEptEvE19__PRETTY_FUNCTION__
000000000007fc20 r _ZZNK5boost10shared_ptrINS_16exception_detail15error_info_baseEEdeEvE19__PRETTY_FUNCTION__
000000000007f740 r _ZZNK5boost10shared_ptrINS_6detail12shared_stateISt6vectorISsSaISsEEEEEptEvE19__PRETTY_FUNCTION__
000000000007fb60 r _ZZNK5boost16exception_detail25error_info_container_impl3getERKNS0_10type_info_EE19__PRETTY_FUNCTION__
